Certificate:
    Data:
        Version: 3 (0x2)
        Serial Number: 11937357744001430109 (0xa5aa039f0ff6b25d)
    Signature Algorithm: sha256WithRSAEncryption
        Issuer: C=xx, ST=x, O=x, OU=x, CN=x
        Validity
            Not Before: Apr 12 12:50:10 2018 GMT
            Not After : Apr 12 12:50:10 2019 GMT
        Subject: C=CH, ST=VD, L=Lausanne, O=EPFL, OU=LCA1, CN=iccluster030.iccluster.epfl.ch
        Subject Public Key Info:
            Public Key Algorithm: rsaEncryption
                Public-Key: (2048 bit)
                Modulus:
                    00:8e:ea:21:2a:50:53:57:b5:ce:6a:8a:71:a4:4f:
                    ab:75:eb:80:84:2d:d6:f2:c9:08:52:b2:d5:0c:0c:
                    83:11:ac:73:20:97:3c:ce:0d:db:81:06:fd:f0:1c:
                    3c:33:08:45:69:6b:e8:6d:a3:be:79:d9:b2:8d:3f:
                    88:27:40:da:d4:57:c9:fd:5e:58:7f:b5:4c:1e:17:
                    f1:e7:d8:4f:94:d4:66:41:d5:7d:73:6e:a2:ce:bb:
                    d4:f9:89:ab:dd:d1:dd:55:1e:ba:18:84:91:fb:29:
                    2a:c9:28:97:ae:d2:19:73:a1:f3:d6:f9:15:99:44:
                    c2:b8:f8:05:64:af:df:4a:98:fa:23:b2:8c:51:b3:
                    6a:67:40:39:52:80:75:ef:f3:55:81:f5:c9:81:c9:
                    07:92:42:b0:32:5c:89:91:88:e9:d6:0d:7a:6f:ca:
                    e3:6b:09:c5:ac:8f:a9:54:ff:03:c0:73:59:c3:3e:
                    db:02:16:e2:eb:e2:1a:47:78:a5:85:94:bb:33:61:
                    34:5c:1c:ca:25:b5:97:0f:73:08:cd:df:00:cc:e2:
                    c5:36:d9:ce:7a:39:1b:1d:0a:37:0f:d8:18:cb:c6:
                    80:3d:d7:c3:41:43:42:78:a3:42:c2:93:2a:cf:dc:
                    42:b1:fe:a4:37:01:72:98:80:31:7f:39:1d:56:2e:
                    ab:2d
                Exponent: 65537 (0x10001)
        X509v3 extensions:
            X509v3 Basic Constraints: 
                CA:FALSE
            X509v3 Subject Alternative Name: 
                IP Address:10.90.38.6, DNS:iccluster030.iccluster.epfl.ch
            X509v3 Subject Key Identifier: 
                29:C8:71:DB:44:61:F4:57:7F:CB:15:2A:E4:86:D9:EE:8A:AA:BA:68
    Signature Algorithm: sha256WithRSAEncryption
         8a:22:92:6c:88:3b:71:42:5e:7f:fd:b1:32:0d:c9:27:06:d2:
         b8:34:20:3b:b8:c6:27:81:f2:0a:b8:45:39:ad:f4:d7:db:84:
         e2:95:8f:f5:04:01:a5:18:29:b9:18:6b:29:9c:02:a5:4b:ba:
         f2:f0:85:65:67:78:cc:7b:a7:81:d3:12:3f:14:8a:a5:98:ae:
         cd:5b:96:20:cd:03:0d:fc:fc:a1:d9:bd:8d:ec:8a:16:60:3f:
         f5:5a:ba:e7:73:14:01:82:f3:2a:31:b4:6f:ce:66:34:27:c7:
         8c:3c:d0:c9:78:9e:cd:8f:53:e0:ba:2f:a0:0e:77:90:f6:ce:
         15:61:52:a5:41:f3:ac:5d:5d:bb:eb:a0:06:cd:fe:7b:47:9e:
         20:7c:fa:8b:1f:a3:b1:77:cb:45:60:4e:ad:f5:e3:8a:32:82:
         e5:01:e5:0f:59:f5:04:3f:f8:6d:5b:b9:e6:43:8d:90:2b:51:
         21:a7:90:b4:0b:78:f7:c1:ba:13:05:d1:13:f3:0e:a2:0c:1b:
         9d:3b:c2:eb:b5:ed:1e:72:0a:3d:3d:db:db:5c:31:3e:e1:a0:
         38:a4:cb:59:10:d6:34:00:a9:08:f8:0a:86:34:d3:80:c6:07:
         34:28:cd:4a:70:97:85:2c:b8:2d:02:42:d2:5b:fd:9c:e1:4a:
         3d:49:10:b6
-----BEGIN CERTIFICATE-----
MIIDkTCCAnmgAwIBAgIJAKWqA58P9rJdMA0GCSqGSIb3DQEBCwUAMD0xCzAJBgNV
BAYTAnh4MQowCAYDVQQIDAF4MQowCAYDVQQKDAF4MQowCAYDVQQLDAF4MQowCAYD
VQQDDAF4MB4XDTE4MDQxMjEyNTAxMFoXDTE5MDQxMjEyNTAxMFowdDELMAkGA1UE
BhMCQ0gxCzAJBgNVBAgTAlZEMREwDwYDVQQHEwhMYXVzYW5uZTENMAsGA1UEChME
RVBGTDENMAsGA1UECxMETENBMTEnMCUGA1UEAxMeaWNjbHVzdGVyMDMwLmljY2x1
c3Rlci5lcGZsLmNoMIIBIjANBgkqhkiG9w0BAQEFAAOCAQ8AMIIBCgKCAQEAjuoh
KlBTV7XOaopxpE+rdeuAhC3W8skIUrLVDAyDEaxzIJc8zg3bgQb98Bw8MwhFaWvo
baO+edmyjT+IJ0Da1FfJ/V5Yf7VMHhfx59hPlNRmQdV9c26izrvU+Ymr3dHdVR66
GISR+ykqySiXrtIZc6Hz1vkVmUTCuPgFZK/fSpj6I7KMUbNqZ0A5UoB17/NVgfXJ
gckHkkKwMlyJkYjp1g16b8rjawnFrI+pVP8DwHNZwz7bAhbi6+IaR3ilhZS7M2E0
XBzKJbWXD3MIzd8AzOLFNtnOejkbHQo3D9gYy8aAPdfDQUNCeKNCwpMqz9xCsf6k
NwFymIAxfzkdVi6rLQIDAQABo10wWzAJBgNVHRMEAjAAMC8GA1UdEQQoMCaHBApa
JgaCHmljY2x1c3RlcjAzMC5pY2NsdXN0ZXIuZXBmbC5jaDAdBgNVHQ4EFgQUKchx
20Rh9Fd/yxUq5IbZ7oqqumgwDQYJKoZIhvcNAQELBQADggEBAIoikmyIO3FCXn/9
sTINyScG0rg0IDu4xieB8gq4RTmt9NfbhOKVj/UEAaUYKbkYaymcAqVLuvLwhWVn
eMx7p4HTEj8UiqWYrs1bliDNAw38/KHZvY3sihZgP/VauudzFAGC8yoxtG/OZjQn
x4w80Ml4ns2PU+C6L6AOd5D2zhVhUqVB86xdXbvroAbN/ntHniB8+osfo7F3y0Vg
Tq3144oyguUB5Q9Z9QQ/+G1bueZDjZArUSGnkLQLePfBuhMF0RPzDqIMG507wuu1
7R5yCj0929tcMT7hoDiky1kQ1jQAqQj4CoY004DGBzQozUpwl4UsuC0CQtJb/Zzh
Sj1JELY=
-----END CERTIFICATE-----
