Certificate:
    Data:
        Version: 3 (0x2)
        Serial Number: 11937357744001430108 (0xa5aa039f0ff6b25c)
    Signature Algorithm: sha256WithRSAEncryption
        Issuer: C=xx, ST=x, O=x, OU=x, CN=x
        Validity
            Not Before: Apr 12 12:49:54 2018 GMT
            Not After : Apr 11 12:49:54 2021 GMT
        Subject: C=xx, ST=x, O=x, OU=x, CN=x
        Subject Public Key Info:
            Public Key Algorithm: rsaEncryption
                Public-Key: (2048 bit)
                Modulus:
                    00:af:5f:d5:0e:43:bb:84:2c:92:fc:d4:a2:34:a0:
                    0b:6c:64:fa:d7:94:7a:4b:4e:c5:76:18:2d:48:9b:
                    3e:aa:85:55:c9:24:4c:0a:e4:90:04:ef:f7:4a:19:
                    e3:50:2c:90:0d:b3:c8:c9:36:ba:72:b3:af:02:74:
                    8c:b9:9a:d0:68:04:8f:65:50:18:e5:84:e7:49:f9:
                    fb:03:e4:1d:b3:f6:f2:59:f4:ba:94:f9:18:74:60:
                    a1:6c:39:02:a8:87:9d:1d:8d:e9:71:27:18:1d:d2:
                    89:b9:0c:7e:e4:8d:5c:81:d3:4b:d6:3e:3a:67:37:
                    bd:74:ac:1c:a5:bc:d4:97:04:05:f0:ca:6a:2b:b8:
                    5c:89:e7:42:f8:1c:4e:6f:00:3b:fb:0c:f4:43:fd:
                    30:70:e5:8d:b0:07:6c:2e:ab:06:83:79:fc:36:30:
                    a9:b1:93:4c:3f:85:be:e5:08:99:4c:5d:9c:28:82:
                    df:4e:be:d4:c0:d8:50:e5:a7:89:25:17:ad:f9:6a:
                    ab:41:e3:5a:aa:a2:1b:80:93:66:48:1f:3c:3c:bd:
                    9d:12:14:0e:4c:ce:08:91:40:bd:f5:de:f8:64:f0:
                    21:66:51:28:72:a3:d7:a4:2f:16:20:1e:02:49:e8:
                    b4:3d:47:69:9e:fc:01:6d:53:00:8e:23:0f:dc:62:
                    99:ff
                Exponent: 65537 (0x10001)
        X509v3 extensions:
            X509v3 Subject Key Identifier: 
                F0:FF:95:FA:70:C5:92:1C:52:A9:F0:7A:19:B3:A0:F0:6D:24:AA:A8
            X509v3 Authority Key Identifier: 
                keyid:F0:FF:95:FA:70:C5:92:1C:52:A9:F0:7A:19:B3:A0:F0:6D:24:AA:A8

            X509v3 Basic Constraints: 
                CA:TRUE
    Signature Algorithm: sha256WithRSAEncryption
         18:59:d7:91:50:29:cd:b5:f3:cb:3a:79:5c:6a:ef:ca:70:27:
         d1:71:47:c4:cd:a5:8c:d3:d4:4b:77:1d:fa:05:e7:76:9c:a9:
         80:be:8d:65:64:82:40:1c:d2:2a:c6:99:bf:03:17:8b:66:83:
         2f:bc:9a:dc:4a:7f:7b:33:8e:52:50:a8:19:ac:f0:54:81:ed:
         50:71:e9:43:c4:c0:00:f0:6f:eb:c9:c8:c1:64:9e:9a:17:34:
         e2:27:d2:56:2d:81:99:d2:56:fe:d4:e5:ff:05:37:97:a3:c8:
         39:8d:12:a2:d1:b4:f9:18:ed:e0:78:37:34:b7:35:fe:eb:0f:
         63:54:c4:e3:ff:b6:1e:a6:a6:3f:08:bd:83:f3:d3:ee:33:02:
         7f:c5:2a:36:3e:5e:28:51:53:67:54:b1:41:07:7a:10:42:23:
         d7:d5:52:09:df:8f:5a:1f:95:82:cb:d0:01:be:31:e5:63:23:
         77:ab:5e:70:b5:6b:84:3f:31:c4:77:e5:d0:51:4a:70:42:56:
         1e:23:5a:b9:42:33:70:7f:98:0d:62:76:2a:3e:4a:ad:58:25:
         03:79:85:bb:a7:0b:24:73:fa:11:35:f8:ac:02:58:91:e9:8a:
         0f:2d:63:d7:61:d4:34:4b:b8:77:40:26:35:88:37:63:7f:0c:
         0f:78:2d:d9
-----BEGIN CERTIFICATE-----
MIIDTTCCAjWgAwIBAgIJAKWqA58P9rJcMA0GCSqGSIb3DQEBCwUAMD0xCzAJBgNV
BAYTAnh4MQowCAYDVQQIDAF4MQowCAYDVQQKDAF4MQowCAYDVQQLDAF4MQowCAYD
VQQDDAF4MB4XDTE4MDQxMjEyNDk1NFoXDTIxMDQxMTEyNDk1NFowPTELMAkGA1UE
BhMCeHgxCjAIBgNVBAgMAXgxCjAIBgNVBAoMAXgxCjAIBgNVBAsMAXgxCjAIBgNV
BAMMAXgwggEiMA0GCSqGSIb3DQEBAQUAA4IBDwAwggEKAoIBAQCvX9UOQ7uELJL8
1KI0oAtsZPrXlHpLTsV2GC1Imz6qhVXJJEwK5JAE7/dKGeNQLJANs8jJNrpys68C
dIy5mtBoBI9lUBjlhOdJ+fsD5B2z9vJZ9LqU+Rh0YKFsOQKoh50djelxJxgd0om5
DH7kjVyB00vWPjpnN710rBylvNSXBAXwymoruFyJ50L4HE5vADv7DPRD/TBw5Y2w
B2wuqwaDefw2MKmxk0w/hb7lCJlMXZwogt9OvtTA2FDlp4klF635aqtB41qqohuA
k2ZIHzw8vZ0SFA5MzgiRQL313vhk8CFmUShyo9ekLxYgHgJJ6LQ9R2me/AFtUwCO
Iw/cYpn/AgMBAAGjUDBOMB0GA1UdDgQWBBTw/5X6cMWSHFKp8HoZs6DwbSSqqDAf
BgNVHSMEGDAWgBTw/5X6cMWSHFKp8HoZs6DwbSSqqDAMBgNVHRMEBTADAQH/MA0G
CSqGSIb3DQEBCwUAA4IBAQAYWdeRUCnNtfPLOnlcau/KcCfRcUfEzaWM09RLdx36
Bed2nKmAvo1lZIJAHNIqxpm/AxeLZoMvvJrcSn97M45SUKgZrPBUge1QcelDxMAA
8G/rycjBZJ6aFzTiJ9JWLYGZ0lb+1OX/BTeXo8g5jRKi0bT5GO3geDc0tzX+6w9j
VMTj/7YepqY/CL2D89PuMwJ/xSo2Pl4oUVNnVLFBB3oQQiPX1VIJ349aH5WCy9AB
vjHlYyN3q15wtWuEPzHEd+XQUUpwQlYeI1q5QjNwf5gNYnYqPkqtWCUDeYW7pwsk
c/oRNfisAliR6YoPLWPXYdQ0S7h3QCY1iDdjfwwPeC3Z
-----END CERTIFICATE-----
