Certificate:
    Data:
        Version: 3 (0x2)
        Serial Number: 15073187418306903703 (0xd12eb8188511fe97)
    Signature Algorithm: sha256WithRSAEncryption
        Issuer: C=CH, ST=Vaud, O=EPFL, OU=MedCo, CN=Node 0
        Validity
            Not Before: Apr 10 10:30:18 2018 GMT
            Not After : Apr  9 10:30:18 2021 GMT
        Subject: C=CH, ST=Vaud, O=EPFL, OU=MedCo, CN=Node 0
        Subject Public Key Info:
            Public Key Algorithm: rsaEncryption
                Public-Key: (2048 bit)
                Modulus:
                    00:bb:32:1c:93:7a:52:ff:93:6c:c9:49:92:0f:b4:
                    54:3d:25:e4:5f:b7:4e:98:3a:f9:d9:94:0a:54:b3:
                    c1:ea:7f:a8:64:9a:92:d1:d7:52:24:af:90:16:db:
                    1e:96:30:15:e9:89:cd:e0:f7:42:83:6c:f8:75:a3:
                    43:c7:aa:3d:a7:0d:2b:8f:56:7a:fb:35:8d:31:9b:
                    fd:7b:78:47:4b:ae:86:3c:54:40:a4:21:7f:79:48:
                    75:ef:db:cc:97:a1:b7:78:ed:9a:58:0e:ae:47:58:
                    8d:b1:37:a6:e4:0c:14:32:e9:89:00:d1:0c:ff:0f:
                    61:c6:38:dd:98:89:71:0a:3d:4e:f8:aa:17:94:0c:
                    3a:ae:0f:65:df:98:f8:34:f8:f3:ca:0d:8b:48:fd:
                    e5:c6:02:79:0e:08:71:5c:17:54:c5:2b:8a:3b:39:
                    58:b0:63:38:37:b8:1e:e8:59:ea:32:f9:5c:ec:8a:
                    ac:58:42:57:7d:40:ec:df:af:95:b8:5f:c5:88:f4:
                    75:4f:72:3f:f8:69:4b:6d:86:3a:06:41:24:c6:84:
                    78:8b:7d:1e:32:08:9e:bc:e0:fd:8b:e4:ad:78:0d:
                    14:07:ec:a3:ee:ba:c6:21:86:fc:12:62:86:5d:ca:
                    1c:99:21:e1:fe:ca:86:48:21:f9:e9:3a:29:5c:e7:
                    d6:8d
                Exponent: 65537 (0x10001)
        X509v3 extensions:
            X509v3 Subject Key Identifier: 
                91:B8:41:38:2C:E0:7B:97:06:D1:1D:52:0E:F1:41:22:BE:7F:2E:9E
            X509v3 Authority Key Identifier: 
                keyid:91:B8:41:38:2C:E0:7B:97:06:D1:1D:52:0E:F1:41:22:BE:7F:2E:9E

            X509v3 Basic Constraints: 
                CA:TRUE
    Signature Algorithm: sha256WithRSAEncryption
         35:09:83:31:f9:f0:5b:90:ec:72:2a:97:18:aa:c9:3c:cd:4f:
         74:86:d5:0a:85:5a:11:83:66:35:e5:b8:61:c9:4f:3d:f5:35:
         ab:f1:bd:13:62:32:16:df:72:46:75:fd:5e:ea:4b:65:3d:3f:
         68:f1:e1:e9:94:e5:df:54:f4:de:84:81:c3:d5:d3:a7:60:d6:
         5d:a8:31:c5:1d:4d:e7:12:2a:4e:c2:9a:4f:38:f9:50:83:9d:
         12:03:60:e3:b6:71:81:9c:1f:89:b1:88:18:a6:a1:b7:fc:c2:
         4e:df:5b:fe:6a:52:c1:28:00:45:7f:08:de:0a:54:9f:3f:df:
         ea:b0:b9:7b:b2:cc:dd:6a:9a:90:ee:fd:f3:5f:f3:15:b8:f0:
         3e:1b:05:3e:44:fa:56:af:9d:34:18:97:4d:bc:c4:e2:fa:b3:
         f3:ae:21:60:e2:e7:ab:34:da:03:17:52:ea:a7:99:a7:4a:d2:
         e6:b8:f1:e4:58:ad:5f:81:60:11:81:15:f4:aa:61:57:3d:5a:
         05:d6:a0:4a:40:2d:0f:9d:75:a7:ec:37:d8:3b:08:96:3d:bc:
         d0:cf:50:2d:0b:fb:67:f3:4c:6b:0c:fa:13:7e:45:82:bd:b5:
         ca:18:ff:ae:9e:be:10:eb:51:80:26:6c:dc:e7:4a:24:79:a4:
         f5:61:d7:3a
-----BEGIN CERTIFICATE-----
MIIDazCCAlOgAwIBAgIJANEuuBiFEf6XMA0GCSqGSIb3DQEBCwUAMEwxCzAJBgNV
BAYTAkNIMQ0wCwYDVQQIDARWYXVkMQ0wCwYDVQQKDARFUEZMMQ4wDAYDVQQLDAVN
ZWRDbzEPMA0GA1UEAwwGTm9kZSAwMB4XDTE4MDQxMDEwMzAxOFoXDTIxMDQwOTEw
MzAxOFowTDELMAkGA1UEBhMCQ0gxDTALBgNVBAgMBFZhdWQxDTALBgNVBAoMBEVQ
RkwxDjAMBgNVBAsMBU1lZENvMQ8wDQYDVQQDDAZOb2RlIDAwggEiMA0GCSqGSIb3
DQEBAQUAA4IBDwAwggEKAoIBAQC7MhyTelL/k2zJSZIPtFQ9JeRft06YOvnZlApU
s8Hqf6hkmpLR11Ikr5AW2x6WMBXpic3g90KDbPh1o0PHqj2nDSuPVnr7NY0xm/17
eEdLroY8VECkIX95SHXv28yXobd47ZpYDq5HWI2xN6bkDBQy6YkA0Qz/D2HGON2Y
iXEKPU74qheUDDquD2XfmPg0+PPKDYtI/eXGAnkOCHFcF1TFK4o7OViwYzg3uB7o
Weoy+VzsiqxYQld9QOzfr5W4X8WI9HVPcj/4aUtthjoGQSTGhHiLfR4yCJ684P2L
5K14DRQH7KPuusYhhvwSYoZdyhyZIeH+yoZIIfnpOilc59aNAgMBAAGjUDBOMB0G
A1UdDgQWBBSRuEE4LOB7lwbRHVIO8UEivn8unjAfBgNVHSMEGDAWgBSRuEE4LOB7
lwbRHVIO8UEivn8unjAMBgNVHRMEBTADAQH/MA0GCSqGSIb3DQEBCwUAA4IBAQA1
CYMx+fBbkOxyKpcYqsk8zU90htUKhVoRg2Y15bhhyU899TWr8b0TYjIW33JGdf1e
6ktlPT9o8eHplOXfVPTehIHD1dOnYNZdqDHFHU3nEipOwppPOPlQg50SA2DjtnGB
nB+JsYgYpqG3/MJO31v+alLBKABFfwjeClSfP9/qsLl7sszdapqQ7v3zX/MVuPA+
GwU+RPpWr500GJdNvMTi+rPzriFg4uerNNoDF1Lqp5mnStLmuPHkWK1fgWARgRX0
qmFXPVoF1qBKQC0PnXWn7DfYOwiWPbzQz1AtC/tn80xrDPoTfkWCvbXKGP+unr4Q
61GAJmzc50okeaT1Ydc6
-----END CERTIFICATE-----
