Certificate:
    Data:
        Version: 3 (0x2)
        Serial Number: 15073187418306903704 (0xd12eb8188511fe98)
    Signature Algorithm: sha256WithRSAEncryption
        Issuer: C=CH, ST=Vaud, O=EPFL, OU=MedCo, CN=Node 0
        Validity
            Not Before: Apr 10 10:30:34 2018 GMT
            Not After : Apr 10 10:30:34 2019 GMT
        Subject: C=CH, ST=VD, L=Lausanne, O=EPFL, OU=LCA1, CN=iccluster030.iccluster.epfl.ch
        Subject Public Key Info:
            Public Key Algorithm: rsaEncryption
                Public-Key: (2048 bit)
                Modulus:
                    00:8b:62:c5:51:97:51:56:e4:85:82:63:0f:72:46:
                    62:9f:ed:b6:42:6f:92:90:57:cb:94:b0:7e:c7:df:
                    be:df:49:9b:6c:3a:9a:87:97:1e:5a:18:e9:0a:07:
                    10:a9:52:ba:ac:31:4d:08:43:6f:a4:06:aa:ef:6c:
                    65:b4:11:07:d1:58:bb:43:a8:b5:9f:f3:bc:30:b5:
                    31:02:d8:24:f0:a7:91:b2:7d:25:78:27:21:b6:cd:
                    c8:0e:29:c4:94:5a:bf:d1:cf:61:bc:3e:c0:35:c1:
                    7f:0b:ce:e5:f4:ce:f9:27:a7:9a:22:f4:2c:28:bf:
                    d8:1b:6b:32:d6:3d:63:9c:99:e1:16:53:69:74:31:
                    f1:c8:4b:ee:e2:45:dd:a8:2b:a3:23:21:96:9d:76:
                    62:47:49:c5:e0:e4:62:06:c5:21:57:83:c4:6e:1e:
                    07:11:7e:eb:28:04:e2:cb:76:dc:59:20:63:3e:78:
                    58:8f:71:0a:86:60:6b:8a:31:dd:e7:79:de:87:4f:
                    3d:57:87:2f:7a:2f:85:be:43:fb:49:63:58:13:3f:
                    c5:ff:4d:87:40:11:e5:45:cb:e6:59:cf:7e:10:f9:
                    be:9b:b3:b5:7c:5e:32:9b:32:a3:57:14:29:b8:7f:
                    e8:29:73:6a:98:97:80:4b:8d:8d:23:32:03:21:05:
                    d8:cf
                Exponent: 65537 (0x10001)
        X509v3 extensions:
            X509v3 Basic Constraints: 
                CA:FALSE
            X509v3 Subject Alternative Name: 
                IP Address:10.90.38.6, DNS:iccluster030.iccluster.epfl.ch
            X509v3 Subject Key Identifier: 
                DB:B4:BE:99:42:AC:89:0B:30:C1:44:1C:03:B9:27:E8:70:17:52:FA
    Signature Algorithm: sha256WithRSAEncryption
         65:a9:34:20:01:14:bd:51:da:f6:3a:7e:8c:91:66:76:3e:78:
         00:de:8e:14:27:cb:8f:4f:d1:92:4d:11:2c:96:8d:a1:5c:a9:
         3e:60:b9:8c:7f:d5:58:85:34:a8:d0:9f:c7:2d:c5:e9:8f:e3:
         25:fd:f5:fb:ee:f3:7c:70:be:1e:ed:23:3c:a2:cf:10:52:74:
         d1:00:51:19:f1:2b:cd:09:aa:81:9f:1e:a4:62:dc:7b:4b:b7:
         dd:10:be:5c:96:de:11:25:32:3c:cc:71:c6:48:b4:04:c2:50:
         ad:d0:0d:12:3b:56:3a:79:50:0b:f2:a3:a1:f4:7b:4f:19:6d:
         5c:8f:6b:03:b4:61:48:59:95:64:bb:0e:fd:52:a0:a6:01:04:
         d5:a3:b1:51:85:60:e3:f2:2d:f9:22:cd:b5:7a:6a:30:7d:88:
         47:82:31:ae:1d:77:71:08:eb:4b:84:af:7c:06:c9:6c:32:fd:
         3a:c8:47:3d:17:f8:48:2b:e8:99:b2:3d:bc:40:3c:e8:28:48:
         73:81:65:57:f0:cd:01:1e:9f:e0:dd:2f:3a:77:a4:03:bf:ee:
         ca:7f:4a:3c:2a:d7:50:78:a5:7b:81:db:4f:db:fb:5f:a7:a2:
         b8:8c:9c:bf:1f:d6:0a:64:07:dc:c0:e5:af:64:30:1f:22:8e:
         08:7a:58:15
-----BEGIN CERTIFICATE-----
MIIDoDCCAoigAwIBAgIJANEuuBiFEf6YMA0GCSqGSIb3DQEBCwUAMEwxCzAJBgNV
BAYTAkNIMQ0wCwYDVQQIDARWYXVkMQ0wCwYDVQQKDARFUEZMMQ4wDAYDVQQLDAVN
ZWRDbzEPMA0GA1UEAwwGTm9kZSAwMB4XDTE4MDQxMDEwMzAzNFoXDTE5MDQxMDEw
MzAzNFowdDELMAkGA1UEBhMCQ0gxCzAJBgNVBAgTAlZEMREwDwYDVQQHEwhMYXVz
YW5uZTENMAsGA1UEChMERVBGTDENMAsGA1UECxMETENBMTEnMCUGA1UEAxMeaWNj
bHVzdGVyMDMwLmljY2x1c3Rlci5lcGZsLmNoMIIBIjANBgkqhkiG9w0BAQEFAAOC
AQ8AMIIBCgKCAQEAi2LFUZdRVuSFgmMPckZin+22Qm+SkFfLlLB+x9++30mbbDqa
h5ceWhjpCgcQqVK6rDFNCENvpAaq72xltBEH0Vi7Q6i1n/O8MLUxAtgk8KeRsn0l
eCchts3IDinElFq/0c9hvD7ANcF/C87l9M75J6eaIvQsKL/YG2sy1j1jnJnhFlNp
dDHxyEvu4kXdqCujIyGWnXZiR0nF4ORiBsUhV4PEbh4HEX7rKATiy3bcWSBjPnhY
j3EKhmBrijHd53neh089V4cvei+FvkP7SWNYEz/F/02HQBHlRcvmWc9+EPm+m7O1
fF4ymzKjVxQpuH/oKXNqmJeAS42NIzIDIQXYzwIDAQABo10wWzAJBgNVHRMEAjAA
MC8GA1UdEQQoMCaHBApaJgaCHmljY2x1c3RlcjAzMC5pY2NsdXN0ZXIuZXBmbC5j
aDAdBgNVHQ4EFgQU27S+mUKsiQswwUQcA7kn6HAXUvowDQYJKoZIhvcNAQELBQAD
ggEBAGWpNCABFL1R2vY6foyRZnY+eADejhQny49P0ZJNESyWjaFcqT5guYx/1ViF
NKjQn8ctxemP4yX99fvu83xwvh7tIzyizxBSdNEAURnxK80JqoGfHqRi3HtLt90Q
vlyW3hElMjzMccZItATCUK3QDRI7Vjp5UAvyo6H0e08ZbVyPawO0YUhZlWS7Dv1S
oKYBBNWjsVGFYOPyLfkizbV6ajB9iEeCMa4dd3EI60uEr3wGyWwy/TrIRz0X+Egr
6JmyPbxAPOgoSHOBZVfwzQEen+DdLzp3pAO/7sp/Sjwq11B4pXuB20/b+1+noriM
nL8f1gpkB9zA5a9kMB8ijgh6WBU=
-----END CERTIFICATE-----
