Certificate:
    Data:
        Version: 3 (0x2)
        Serial Number: 16906851283665168497 (0xeaa133aa89382871)
    Signature Algorithm: sha256WithRSAEncryption
        Issuer: C=xx, ST=x, O=x, OU=x, CN=x
        Validity
            Not Before: May  3 09:12:06 2018 GMT
            Not After : May  3 09:12:06 2019 GMT
        Subject: C=CH, ST=VD, L=Lausanne, O=EPFL, OU=LCA1, CN=iccluster106.iccluster.epfl.ch
        Subject Public Key Info:
            Public Key Algorithm: rsaEncryption
                Public-Key: (2048 bit)
                Modulus:
                    00:e6:f3:ca:7f:b1:fc:22:4f:3a:51:58:52:ac:62:
                    b3:4e:19:c4:45:48:5c:88:c4:b2:80:e7:c5:f2:55:
                    ed:e3:c1:6f:3a:29:8c:eb:af:02:f1:41:9d:2c:70:
                    ac:f4:af:2b:b2:27:f6:22:d1:14:9e:87:d9:16:00:
                    da:10:4b:c5:c9:42:7d:b4:cc:6a:cd:d8:e8:43:4d:
                    53:48:fd:3b:98:c9:68:91:cd:fa:00:ca:8c:dc:37:
                    69:e9:24:3e:da:9a:5b:ba:fb:64:ef:da:17:eb:8a:
                    6f:82:05:73:15:f6:1c:35:3f:09:9d:72:c4:0b:45:
                    5a:30:b3:80:84:d1:08:7b:c7:39:dc:27:4e:90:1d:
                    e1:05:dc:31:7d:e9:fc:39:42:bf:32:8e:0d:3a:9a:
                    34:bf:28:90:28:7c:76:f5:75:63:c7:3b:c3:9b:6f:
                    35:34:e5:ae:76:ca:96:b9:b5:44:7b:91:84:3c:1a:
                    06:b4:60:8b:41:3e:eb:9c:76:76:e2:0b:a1:40:c0:
                    85:da:f0:20:5c:78:af:37:04:18:3c:a9:01:e7:8d:
                    b0:d9:ac:d2:86:e8:fb:1a:2d:96:74:3d:9c:ed:4f:
                    71:55:d7:fd:9f:17:d5:c4:fb:bd:12:a1:85:2a:b0:
                    f2:f3:15:2f:38:42:d3:bc:7b:25:2b:a9:b5:34:9b:
                    54:0b
                Exponent: 65537 (0x10001)
        X509v3 extensions:
            X509v3 Basic Constraints: 
                CA:FALSE
            X509v3 Subject Alternative Name: 
                IP Address:10.90.36.36, DNS:iccluster106.iccluster.epfl.ch
            X509v3 Subject Key Identifier: 
                FD:55:6C:A8:63:DB:55:D1:DA:E5:3B:FF:C7:2F:EC:A6:5D:DA:B8:DC
    Signature Algorithm: sha256WithRSAEncryption
         a0:74:39:16:12:ec:f0:77:56:4b:72:95:e3:05:a3:48:cc:10:
         7f:36:e4:9e:ff:a3:12:3b:32:af:4c:a2:8c:56:42:50:71:ec:
         62:a0:d8:78:87:e0:7d:1a:eb:32:71:91:07:a5:5e:bc:81:4c:
         dc:75:21:78:a4:a1:4c:fb:45:9f:e5:e8:2b:ee:c2:32:1f:32:
         94:54:f9:fc:a2:5e:96:b2:80:52:7d:4c:3b:52:b4:1b:1b:ea:
         53:cc:2f:63:e9:59:2f:f4:37:79:ec:14:dc:fe:5a:73:b9:81:
         38:09:e6:cb:55:92:61:75:93:a6:0f:fd:3f:13:30:bd:fb:c0:
         99:2b:5c:18:a4:99:ee:26:fa:6b:a2:43:cf:af:ca:9b:36:50:
         06:7b:34:82:f9:b9:6f:ff:25:1e:2d:cb:c5:60:22:36:b1:1c:
         44:61:f6:82:93:c3:58:95:ca:49:d3:33:f6:8a:74:32:5d:d3:
         ab:6c:5f:1e:c8:68:db:58:97:ac:cf:b2:9f:07:66:f9:d0:0c:
         72:b9:ed:db:43:48:c4:a3:7b:b8:23:e9:0c:82:4b:76:74:2f:
         54:f4:8e:83:c5:1b:ed:31:99:25:b2:11:6b:77:15:f1:c6:1e:
         04:61:db:0b:48:32:01:63:4c:16:7d:57:0f:c0:f2:50:52:50:
         3a:bd:78:16
-----BEGIN CERTIFICATE-----
MIIDkTCCAnmgAwIBAgIJAOqhM6qJOChxMA0GCSqGSIb3DQEBCwUAMD0xCzAJBgNV
BAYTAnh4MQowCAYDVQQIDAF4MQowCAYDVQQKDAF4MQowCAYDVQQLDAF4MQowCAYD
VQQDDAF4MB4XDTE4MDUwMzA5MTIwNloXDTE5MDUwMzA5MTIwNlowdDELMAkGA1UE
BhMCQ0gxCzAJBgNVBAgTAlZEMREwDwYDVQQHEwhMYXVzYW5uZTENMAsGA1UEChME
RVBGTDENMAsGA1UECxMETENBMTEnMCUGA1UEAxMeaWNjbHVzdGVyMTA2LmljY2x1
c3Rlci5lcGZsLmNoMIIBIjANBgkqhkiG9w0BAQEFAAOCAQ8AMIIBCgKCAQEA5vPK
f7H8Ik86UVhSrGKzThnERUhciMSygOfF8lXt48FvOimM668C8UGdLHCs9K8rsif2
ItEUnofZFgDaEEvFyUJ9tMxqzdjoQ01TSP07mMlokc36AMqM3Ddp6SQ+2ppbuvtk
79oX64pvggVzFfYcNT8JnXLEC0VaMLOAhNEIe8c53CdOkB3hBdwxfen8OUK/Mo4N
Opo0vyiQKHx29XVjxzvDm281NOWudsqWubVEe5GEPBoGtGCLQT7rnHZ24guhQMCF
2vAgXHivNwQYPKkB542w2azShuj7Gi2WdD2c7U9xVdf9nxfVxPu9EqGFKrDy8xUv
OELTvHslK6m1NJtUCwIDAQABo10wWzAJBgNVHRMEAjAAMC8GA1UdEQQoMCaHBApa
JCSCHmljY2x1c3RlcjEwNi5pY2NsdXN0ZXIuZXBmbC5jaDAdBgNVHQ4EFgQU/VVs
qGPbVdHa5Tv/xy/spl3auNwwDQYJKoZIhvcNAQELBQADggEBAKB0ORYS7PB3Vkty
leMFo0jMEH825J7/oxI7Mq9MooxWQlBx7GKg2HiH4H0a6zJxkQelXryBTNx1IXik
oUz7RZ/l6CvuwjIfMpRU+fyiXpaygFJ9TDtStBsb6lPML2PpWS/0N3nsFNz+WnO5
gTgJ5stVkmF1k6YP/T8TML37wJkrXBikme4m+muiQ8+vyps2UAZ7NIL5uW//JR4t
y8VgIjaxHERh9oKTw1iVyknTM/aKdDJd06tsXx7IaNtYl6zPsp8HZvnQDHK57dtD
SMSje7gj6QyCS3Z0L1T0joPFG+0xmSWyEWt3FfHGHgRh2wtIMgFjTBZ9Vw/A8lBS
UDq9eBY=
-----END CERTIFICATE-----
