Certificate:
    Data:
        Version: 3 (0x2)
        Serial Number: 16906851283665168496 (0xeaa133aa89382870)
    Signature Algorithm: sha256WithRSAEncryption
        Issuer: C=xx, ST=x, O=x, OU=x, CN=x
        Validity
            Not Before: May  3 09:11:59 2018 GMT
            Not After : May  3 09:11:59 2019 GMT
        Subject: C=CH, ST=VD, L=Lausanne, O=EPFL, OU=LCA1, CN=iccluster105.iccluster.epfl.ch
        Subject Public Key Info:
            Public Key Algorithm: rsaEncryption
                Public-Key: (2048 bit)
                Modulus:
                    00:a9:0b:31:ee:a1:4a:25:ce:dd:6d:4e:95:cd:d6:
                    6a:13:82:52:0c:b0:5c:21:9b:c1:41:de:d8:b7:20:
                    6f:6b:78:97:bb:f7:97:f7:8f:64:79:2e:9b:2b:53:
                    d7:c3:0c:cc:11:b3:70:a5:59:72:f6:ed:fa:1b:c0:
                    e8:c4:73:8b:3a:08:a9:25:2c:71:54:a0:69:30:33:
                    b0:5f:63:fc:38:86:fa:42:fb:d1:c7:df:af:ec:a5:
                    20:92:8b:e1:92:95:0d:3a:fc:00:03:f6:31:bb:e8:
                    b9:4d:ef:80:ab:89:08:94:f3:73:31:1f:21:0c:ca:
                    82:ad:31:80:f6:72:3b:56:39:73:3c:80:03:87:a9:
                    a9:4a:02:24:ca:89:9a:40:02:a2:68:14:ff:89:ee:
                    e1:4f:38:d4:22:1d:d0:e3:da:8a:d5:bb:bd:bb:94:
                    d1:3d:aa:11:a4:a0:d4:4d:7f:57:e5:a5:b9:9f:9c:
                    b9:22:8d:15:bc:b2:b8:d8:3c:c4:97:5e:28:fa:63:
                    7e:1f:a6:2b:67:18:e4:c2:6a:ba:f7:ec:2a:69:a1:
                    d5:98:20:87:08:07:e5:3e:b5:26:30:ce:00:56:e9:
                    51:c5:4e:18:a4:89:6f:04:8f:cc:51:74:0a:4b:39:
                    36:3e:59:68:7c:a3:28:77:5e:88:02:9e:15:44:0e:
                    fa:cd
                Exponent: 65537 (0x10001)
        X509v3 extensions:
            X509v3 Basic Constraints: 
                CA:FALSE
            X509v3 Subject Alternative Name: 
                IP Address:10.90.36.35, DNS:iccluster105.iccluster.epfl.ch
            X509v3 Subject Key Identifier: 
                8C:60:30:6B:C4:21:D8:95:34:2B:E6:D0:E2:0D:81:A2:9B:B5:58:4D
    Signature Algorithm: sha256WithRSAEncryption
         7a:4b:9e:65:cf:30:ce:6b:22:dd:42:06:3d:1f:72:93:a8:c8:
         f4:4c:cf:b8:d8:df:62:11:7a:81:2b:2d:81:07:5d:9a:57:c1:
         a6:94:f6:46:76:df:38:7a:f3:d5:22:c1:f4:e4:dd:22:25:6d:
         e0:51:49:f8:52:3b:55:e8:a8:81:2a:f4:bb:b4:20:14:91:e8:
         d2:0d:ba:cb:c4:0d:8b:08:6a:49:59:b5:4a:0a:94:81:5c:29:
         1c:5e:e6:f0:6b:f6:eb:e9:2e:f7:5d:3d:de:d5:f7:4a:84:1d:
         93:dd:22:de:b6:86:1d:47:b0:3a:ac:d7:33:ea:b1:56:55:a2:
         d6:91:d2:75:8e:78:62:8d:8c:c7:37:9e:72:fc:0f:ab:da:f2:
         8b:1a:e2:bb:12:6b:35:75:fd:61:16:0b:54:df:ea:ce:90:da:
         c5:b3:0d:7e:75:ab:75:7e:76:6e:24:ee:b9:ff:48:d3:8e:24:
         bd:7b:0c:ca:89:20:fa:58:15:70:64:ae:1e:ff:53:8a:1a:76:
         d1:6a:70:6a:49:50:a9:c9:19:9a:63:61:33:48:27:f8:8b:cb:
         bf:8f:d0:43:82:0c:89:ef:78:98:96:1e:f4:0f:28:49:44:32:
         b4:1e:fe:6b:30:af:a3:7f:f9:86:38:2e:7f:64:30:78:a3:9d:
         48:bd:96:70
-----BEGIN CERTIFICATE-----
MIIDkTCCAnmgAwIBAgIJAOqhM6qJOChwMA0GCSqGSIb3DQEBCwUAMD0xCzAJBgNV
BAYTAnh4MQowCAYDVQQIDAF4MQowCAYDVQQKDAF4MQowCAYDVQQLDAF4MQowCAYD
VQQDDAF4MB4XDTE4MDUwMzA5MTE1OVoXDTE5MDUwMzA5MTE1OVowdDELMAkGA1UE
BhMCQ0gxCzAJBgNVBAgTAlZEMREwDwYDVQQHEwhMYXVzYW5uZTENMAsGA1UEChME
RVBGTDENMAsGA1UECxMETENBMTEnMCUGA1UEAxMeaWNjbHVzdGVyMTA1LmljY2x1
c3Rlci5lcGZsLmNoMIIBIjANBgkqhkiG9w0BAQEFAAOCAQ8AMIIBCgKCAQEAqQsx
7qFKJc7dbU6VzdZqE4JSDLBcIZvBQd7YtyBva3iXu/eX949keS6bK1PXwwzMEbNw
pVly9u36G8DoxHOLOgipJSxxVKBpMDOwX2P8OIb6QvvRx9+v7KUgkovhkpUNOvwA
A/Yxu+i5Te+Aq4kIlPNzMR8hDMqCrTGA9nI7VjlzPIADh6mpSgIkyomaQAKiaBT/
ie7hTzjUIh3Q49qK1bu9u5TRPaoRpKDUTX9X5aW5n5y5Io0VvLK42DzEl14o+mN+
H6YrZxjkwmq69+wqaaHVmCCHCAflPrUmMM4AVulRxU4YpIlvBI/MUXQKSzk2Pllo
fKMod16IAp4VRA76zQIDAQABo10wWzAJBgNVHRMEAjAAMC8GA1UdEQQoMCaHBApa
JCOCHmljY2x1c3RlcjEwNS5pY2NsdXN0ZXIuZXBmbC5jaDAdBgNVHQ4EFgQUjGAw
a8Qh2JU0K+bQ4g2Bopu1WE0wDQYJKoZIhvcNAQELBQADggEBAHpLnmXPMM5rIt1C
Bj0fcpOoyPRMz7jY32IReoErLYEHXZpXwaaU9kZ23zh689UiwfTk3SIlbeBRSfhS
O1XoqIEq9Lu0IBSR6NINusvEDYsIaklZtUoKlIFcKRxe5vBr9uvpLvddPd7V90qE
HZPdIt62hh1HsDqs1zPqsVZVotaR0nWOeGKNjMc3nnL8D6va8osa4rsSazV1/WEW
C1Tf6s6Q2sWzDX51q3V+dm4k7rn/SNOOJL17DMqJIPpYFXBkrh7/U4oadtFqcGpJ
UKnJGZpjYTNIJ/iLy7+P0EOCDInveJiWHvQPKElEMrQe/mswr6N/+YY4Ln9kMHij
nUi9lnA=
-----END CERTIFICATE-----
