Certificate:
    Data:
        Version: 3 (0x2)
        Serial Number: 16906851283665168490 (0xeaa133aa8938286a)
    Signature Algorithm: sha256WithRSAEncryption
        Issuer: C=xx, ST=x, O=x, OU=x, CN=x
        Validity
            Not Before: May  3 09:11:14 2018 GMT
            Not After : May  3 09:11:14 2019 GMT
        Subject: C=CH, ST=VD, L=Lausanne, O=EPFL, OU=LCA1, CN=iccluster072.iccluster.epfl.ch
        Subject Public Key Info:
            Public Key Algorithm: rsaEncryption
                Public-Key: (2048 bit)
                Modulus:
                    00:a8:5b:09:76:58:f9:37:61:40:dd:1f:da:13:19:
                    bc:41:30:fe:c7:c4:23:43:ca:ed:81:b5:30:fb:b8:
                    04:e2:66:48:0f:d1:a8:c6:95:64:71:75:2b:2b:24:
                    19:d9:33:98:cf:67:2f:92:83:92:fd:32:2d:b2:97:
                    02:fb:31:44:16:42:d2:c4:2f:f0:5f:3c:49:17:e9:
                    61:08:17:78:f1:76:71:5a:0c:4a:26:c7:58:74:15:
                    4e:8b:24:c9:e7:31:cd:53:63:43:2b:28:01:7d:01:
                    2a:f8:a2:9e:95:f0:02:fd:f5:ea:69:f0:45:5f:69:
                    7e:89:e4:92:a8:10:d3:09:80:8f:25:92:88:f0:7d:
                    f9:b2:64:f5:75:5f:b1:87:28:c9:9a:6e:31:3a:0b:
                    d0:b1:59:bd:cd:49:b4:21:d5:3a:c1:f2:38:3c:3f:
                    73:9e:f6:fe:6c:bf:aa:51:b0:e2:67:56:29:db:9c:
                    e0:d3:68:d9:f6:00:26:bf:d5:39:78:e7:ec:ca:c9:
                    f1:5f:57:f0:66:02:ac:46:85:33:b0:17:dc:9d:c8:
                    1d:b0:5c:fe:5e:85:6e:37:b5:8d:c4:7f:a8:b4:4a:
                    7f:48:a3:89:92:22:5b:18:7f:b1:0b:a4:21:b9:99:
                    8a:63:7d:58:08:c8:bf:e2:6a:ee:76:98:f7:9b:d3:
                    b8:65
                Exponent: 65537 (0x10001)
        X509v3 extensions:
            X509v3 Basic Constraints: 
                CA:FALSE
            X509v3 Subject Alternative Name: 
                IP Address:10.90.39.23, DNS:iccluster072.iccluster.epfl.ch
            X509v3 Subject Key Identifier: 
                51:51:29:D2:7A:CA:73:A0:25:44:BB:C1:FE:75:12:27:A0:71:2D:35
    Signature Algorithm: sha256WithRSAEncryption
         60:1f:e6:c4:15:67:69:ce:b5:ba:06:19:36:03:77:44:1a:14:
         c4:41:4b:91:99:e1:ca:92:b8:6a:5c:2e:58:e0:e4:bf:2b:85:
         41:4e:d3:c3:24:3f:3a:3e:b3:b5:2e:06:02:41:a9:11:ff:f4:
         33:9a:f5:3a:81:15:57:c2:3c:c7:29:fa:41:b5:46:d1:b8:44:
         b4:cf:5e:a8:ea:93:e1:6b:db:45:b6:28:56:7b:6f:4e:08:77:
         33:8f:1b:82:1c:a7:c9:e3:4e:7f:2d:2a:80:62:cc:0f:e8:5d:
         c9:47:11:54:44:e6:dc:90:53:6b:17:ba:63:07:4c:1d:c4:a5:
         b3:a7:f4:d6:b4:cf:49:4c:43:33:c7:00:9b:69:38:13:a9:68:
         5b:d3:81:c3:d7:66:99:1c:d0:79:3e:cd:e9:96:07:6c:eb:63:
         fc:75:6b:60:c5:a1:23:7b:f5:b4:1e:ba:6a:95:58:9e:2d:e2:
         ac:14:a4:5c:09:d9:f6:78:44:f7:6e:65:ef:eb:6e:f1:f5:e8:
         d8:ab:98:7d:65:ac:6b:6e:a0:ac:d9:19:d1:2b:b6:72:d7:12:
         a6:b4:aa:7f:5d:c9:f1:88:7e:c0:4b:d6:86:a5:72:e0:52:f1:
         21:d2:ff:94:82:36:5c:37:ee:4b:74:4d:0d:6b:28:06:6b:03:
         5c:e2:01:a1
-----BEGIN CERTIFICATE-----
MIIDkTCCAnmgAwIBAgIJAOqhM6qJOChqMA0GCSqGSIb3DQEBCwUAMD0xCzAJBgNV
BAYTAnh4MQowCAYDVQQIDAF4MQowCAYDVQQKDAF4MQowCAYDVQQLDAF4MQowCAYD
VQQDDAF4MB4XDTE4MDUwMzA5MTExNFoXDTE5MDUwMzA5MTExNFowdDELMAkGA1UE
BhMCQ0gxCzAJBgNVBAgTAlZEMREwDwYDVQQHEwhMYXVzYW5uZTENMAsGA1UEChME
RVBGTDENMAsGA1UECxMETENBMTEnMCUGA1UEAxMeaWNjbHVzdGVyMDcyLmljY2x1
c3Rlci5lcGZsLmNoMIIBIjANBgkqhkiG9w0BAQEFAAOCAQ8AMIIBCgKCAQEAqFsJ
dlj5N2FA3R/aExm8QTD+x8QjQ8rtgbUw+7gE4mZID9GoxpVkcXUrKyQZ2TOYz2cv
koOS/TItspcC+zFEFkLSxC/wXzxJF+lhCBd48XZxWgxKJsdYdBVOiyTJ5zHNU2ND
KygBfQEq+KKelfAC/fXqafBFX2l+ieSSqBDTCYCPJZKI8H35smT1dV+xhyjJmm4x
OgvQsVm9zUm0IdU6wfI4PD9znvb+bL+qUbDiZ1Yp25zg02jZ9gAmv9U5eOfsysnx
X1fwZgKsRoUzsBfcncgdsFz+XoVuN7WNxH+otEp/SKOJkiJbGH+xC6QhuZmKY31Y
CMi/4mrudpj3m9O4ZQIDAQABo10wWzAJBgNVHRMEAjAAMC8GA1UdEQQoMCaHBApa
JxeCHmljY2x1c3RlcjA3Mi5pY2NsdXN0ZXIuZXBmbC5jaDAdBgNVHQ4EFgQUUVEp
0nrKc6AlRLvB/nUSJ6BxLTUwDQYJKoZIhvcNAQELBQADggEBAGAf5sQVZ2nOtboG
GTYDd0QaFMRBS5GZ4cqSuGpcLljg5L8rhUFO08MkPzo+s7UuBgJBqRH/9DOa9TqB
FVfCPMcp+kG1RtG4RLTPXqjqk+Fr20W2KFZ7b04IdzOPG4Icp8njTn8tKoBizA/o
XclHEVRE5tyQU2sXumMHTB3EpbOn9Na0z0lMQzPHAJtpOBOpaFvTgcPXZpkc0Hk+
zemWB2zrY/x1a2DFoSN79bQeumqVWJ4t4qwUpFwJ2fZ4RPduZe/rbvH16NirmH1l
rGtuoKzZGdErtnLXEqa0qn9dyfGIfsBL1oalcuBS8SHS/5SCNlw37kt0TQ1rKAZr
A1ziAaE=
-----END CERTIFICATE-----
