Certificate:
    Data:
        Version: 3 (0x2)
        Serial Number: 16906851283665168489 (0xeaa133aa89382869)
    Signature Algorithm: sha256WithRSAEncryption
        Issuer: C=xx, ST=x, O=x, OU=x, CN=x
        Validity
            Not Before: May  3 09:11:03 2018 GMT
            Not After : May  3 09:11:03 2019 GMT
        Subject: C=CH, ST=VD, L=Lausanne, O=EPFL, OU=LCA1, CN=iccluster070.iccluster.epfl.ch
        Subject Public Key Info:
            Public Key Algorithm: rsaEncryption
                Public-Key: (2048 bit)
                Modulus:
                    00:cd:ae:0b:81:9e:7f:96:6e:dc:a6:3c:e9:1f:53:
                    cd:52:cb:08:cb:35:d4:8b:49:75:d7:90:eb:4f:25:
                    c3:4f:ad:8b:94:e6:73:de:65:89:e1:37:61:26:00:
                    ac:68:d6:2f:9e:9e:ed:3d:c2:83:8c:53:57:64:ab:
                    24:d6:03:0c:c2:78:64:ef:57:39:18:f2:bc:0d:4f:
                    12:64:e6:93:ec:9f:a6:9c:7f:88:b3:08:11:8b:42:
                    06:ba:69:a6:ec:93:8c:f8:c9:23:11:eb:f3:03:cd:
                    c1:23:1f:2b:96:d7:73:26:7a:c6:7f:74:43:20:a9:
                    19:77:00:77:f9:17:65:cf:84:33:86:4c:38:6c:4c:
                    82:7d:12:35:1a:ed:bb:0d:39:08:7e:8b:f5:b2:10:
                    92:fb:40:78:c5:fa:63:6a:c9:8d:a3:9b:dc:44:5b:
                    bc:91:44:f9:9a:f0:bd:2f:dc:19:40:eb:a4:cd:6a:
                    80:0d:96:e8:13:d1:dd:88:4e:39:ec:97:42:34:b8:
                    48:77:fe:2c:f4:c0:c6:4c:7f:64:46:a4:88:35:ee:
                    91:db:60:9e:ea:01:9d:3d:22:7c:c7:78:d6:e2:3f:
                    25:7a:d1:39:69:77:05:14:3a:d6:0b:19:4b:f9:48:
                    f4:86:74:fa:03:dd:61:8f:84:d0:a4:44:59:3c:03:
                    dc:a9
                Exponent: 65537 (0x10001)
        X509v3 extensions:
            X509v3 Basic Constraints: 
                CA:FALSE
            X509v3 Subject Alternative Name: 
                IP Address:10.90.39.21, DNS:iccluster070.iccluster.epfl.ch
            X509v3 Subject Key Identifier: 
                68:DF:76:86:28:EC:A5:A9:92:DF:7C:2A:66:1D:58:98:E7:B4:54:6A
    Signature Algorithm: sha256WithRSAEncryption
         15:bc:4d:bb:61:e2:dc:5f:64:4d:2a:4b:cf:a1:2f:a5:05:31:
         60:ca:9d:5d:f5:ce:96:30:d9:91:5c:cf:6a:5d:99:85:45:ef:
         b2:1e:04:f0:e5:52:2d:52:6e:47:80:43:ce:b4:76:75:4b:f5:
         8f:b6:09:88:fd:d2:1c:6c:fe:7d:72:7d:89:57:a2:d9:a4:2c:
         6e:6f:fb:84:fe:1b:2b:c8:5c:ba:e7:ae:21:bf:3f:bc:ba:64:
         02:8c:9e:4e:ec:be:d5:ae:b2:c6:76:21:af:42:bf:96:3c:ed:
         71:62:b8:dd:8b:16:7a:c4:e1:fb:36:7d:0d:dc:b2:42:a9:5f:
         e6:13:30:25:00:1e:d6:4e:40:7c:ec:ec:ff:9a:a4:79:79:75:
         83:eb:1c:42:2e:e1:dc:20:52:8e:2f:6e:a9:36:68:5d:e6:ce:
         19:fd:fb:01:9a:44:fd:35:47:61:34:87:08:da:a3:15:cb:dd:
         e5:9b:21:bf:b0:05:c1:71:10:bf:a8:af:0d:51:df:c0:9e:c5:
         cd:19:f0:5e:98:10:e5:64:e6:d8:d4:ac:01:c7:da:a8:32:c1:
         5b:91:ee:e9:7b:56:2c:c2:1d:ad:ef:ca:09:fe:e8:26:27:00:
         7b:3d:c9:27:be:2d:eb:44:60:2c:26:62:83:9b:d1:03:23:53:
         c0:ac:c7:2f
-----BEGIN CERTIFICATE-----
MIIDkTCCAnmgAwIBAgIJAOqhM6qJOChpMA0GCSqGSIb3DQEBCwUAMD0xCzAJBgNV
BAYTAnh4MQowCAYDVQQIDAF4MQowCAYDVQQKDAF4MQowCAYDVQQLDAF4MQowCAYD
VQQDDAF4MB4XDTE4MDUwMzA5MTEwM1oXDTE5MDUwMzA5MTEwM1owdDELMAkGA1UE
BhMCQ0gxCzAJBgNVBAgTAlZEMREwDwYDVQQHEwhMYXVzYW5uZTENMAsGA1UEChME
RVBGTDENMAsGA1UECxMETENBMTEnMCUGA1UEAxMeaWNjbHVzdGVyMDcwLmljY2x1
c3Rlci5lcGZsLmNoMIIBIjANBgkqhkiG9w0BAQEFAAOCAQ8AMIIBCgKCAQEAza4L
gZ5/lm7cpjzpH1PNUssIyzXUi0l115DrTyXDT62LlOZz3mWJ4TdhJgCsaNYvnp7t
PcKDjFNXZKsk1gMMwnhk71c5GPK8DU8SZOaT7J+mnH+IswgRi0IGummm7JOM+Mkj
EevzA83BIx8rltdzJnrGf3RDIKkZdwB3+Rdlz4Qzhkw4bEyCfRI1Gu27DTkIfov1
shCS+0B4xfpjasmNo5vcRFu8kUT5mvC9L9wZQOukzWqADZboE9HdiE457JdCNLhI
d/4s9MDGTH9kRqSINe6R22Ce6gGdPSJ8x3jW4j8letE5aXcFFDrWCxlL+Uj0hnT6
A91hj4TQpERZPAPcqQIDAQABo10wWzAJBgNVHRMEAjAAMC8GA1UdEQQoMCaHBApa
JxWCHmljY2x1c3RlcjA3MC5pY2NsdXN0ZXIuZXBmbC5jaDAdBgNVHQ4EFgQUaN92
hijspamS33wqZh1YmOe0VGowDQYJKoZIhvcNAQELBQADggEBABW8Tbth4txfZE0q
S8+hL6UFMWDKnV31zpYw2ZFcz2pdmYVF77IeBPDlUi1SbkeAQ860dnVL9Y+2CYj9
0hxs/n1yfYlXotmkLG5v+4T+GyvIXLrnriG/P7y6ZAKMnk7svtWussZ2Ia9Cv5Y8
7XFiuN2LFnrE4fs2fQ3cskKpX+YTMCUAHtZOQHzs7P+apHl5dYPrHEIu4dwgUo4v
bqk2aF3mzhn9+wGaRP01R2E0hwjaoxXL3eWbIb+wBcFxEL+orw1R38Cexc0Z8F6Y
EOVk5tjUrAHH2qgywVuR7ul7VizCHa3vygn+6CYnAHs9ySe+LetEYCwmYoOb0QMj
U8Csxy8=
-----END CERTIFICATE-----
