Certificate:
    Data:
        Version: 3 (0x2)
        Serial Number: 16906851283665168493 (0xeaa133aa8938286d)
    Signature Algorithm: sha256WithRSAEncryption
        Issuer: C=xx, ST=x, O=x, OU=x, CN=x
        Validity
            Not Before: May  3 09:11:36 2018 GMT
            Not After : May  3 09:11:36 2019 GMT
        Subject: C=CH, ST=VD, L=Lausanne, O=EPFL, OU=LCA1, CN=iccluster102.iccluster.epfl.ch
        Subject Public Key Info:
            Public Key Algorithm: rsaEncryption
                Public-Key: (2048 bit)
                Modulus:
                    00:a8:96:7d:83:71:b1:46:b3:6a:70:aa:6a:89:a7:
                    d2:17:b8:ca:d2:b7:e7:89:90:fe:7a:8b:ec:ad:cc:
                    58:38:c1:ff:1f:e0:18:b8:74:23:ce:1e:d8:e3:2c:
                    e2:a9:2c:fc:1d:5d:0d:1d:7d:19:4a:9b:c7:2b:b0:
                    dc:dc:5c:dd:97:c6:2a:01:a0:49:85:29:49:c7:79:
                    db:48:22:bc:d3:6e:f3:8e:1e:ec:bf:4e:73:ef:74:
                    86:49:fa:50:3d:92:7a:1a:76:e7:df:ce:0e:d0:a0:
                    28:04:77:f7:b8:7c:9f:c6:bf:ea:12:ce:d0:be:40:
                    d6:08:ca:53:23:a4:ea:5e:ee:b7:21:1e:70:54:cf:
                    f8:2b:18:f8:a8:6d:a6:16:75:5e:89:1f:3f:4e:e7:
                    5b:05:e1:ad:28:06:6f:37:92:18:68:0b:a2:89:97:
                    6c:61:27:8d:1b:57:50:85:30:aa:d1:3a:2b:63:78:
                    7f:6f:42:83:0c:05:bd:40:dd:40:73:70:c6:8c:ec:
                    ae:b3:be:7b:b2:3c:52:d1:20:a5:50:c6:0e:be:d0:
                    2e:bc:08:3f:aa:13:8d:88:18:d6:28:e0:46:1a:aa:
                    d1:dd:94:62:38:56:f1:79:9c:ca:d9:d9:ce:ba:f6:
                    3b:f7:e5:00:6b:56:1e:12:75:2d:bb:94:d0:fb:42:
                    38:b3
                Exponent: 65537 (0x10001)
        X509v3 extensions:
            X509v3 Basic Constraints: 
                CA:FALSE
            X509v3 Subject Alternative Name: 
                IP Address:10.90.36.32, DNS:iccluster102.iccluster.epfl.ch
            X509v3 Subject Key Identifier: 
                7B:F2:92:63:40:F8:1A:AF:28:54:18:5D:12:CA:C1:03:AD:20:B7:32
    Signature Algorithm: sha256WithRSAEncryption
         2a:c7:4f:27:35:97:07:59:41:7c:a4:0b:4a:e8:18:3f:c0:3c:
         04:3d:80:8f:41:3d:91:f0:60:8c:76:e2:6b:30:f2:3a:da:cb:
         34:68:a3:f9:d4:bd:cd:d7:8c:97:c3:8e:2e:91:bd:d6:0d:e2:
         6a:db:eb:bc:1d:8b:f3:20:ab:f9:aa:39:5a:e9:fa:4b:9e:28:
         d8:41:8d:aa:30:be:ea:e3:a4:bb:ac:f3:d4:68:fc:d2:f0:c6:
         f4:2c:4a:81:3d:a4:8a:5f:15:1c:b7:5c:33:92:9a:85:e3:94:
         fb:7d:15:9c:63:ab:00:85:10:19:52:78:2a:17:ff:a9:38:a2:
         68:ad:d5:19:5b:ca:14:84:f7:3e:bb:83:96:de:46:7d:1b:a8:
         69:48:86:f0:e8:0b:80:a9:70:12:6e:f1:4f:e5:fc:9b:45:59:
         03:95:ff:4c:af:16:01:52:66:12:39:d4:54:8d:02:6c:84:9c:
         d1:0f:83:4e:15:88:28:02:03:5c:e1:b9:3c:b2:b9:f4:19:63:
         13:f4:1b:95:7b:7c:d2:44:e3:c3:64:1e:9b:6c:e8:28:88:f1:
         7f:5c:93:ed:83:3f:45:71:74:fc:4b:a0:47:3e:d9:f2:e9:ae:
         99:1d:94:6f:4c:71:bd:84:90:9e:4b:fb:e3:11:61:1d:78:d5:
         d2:49:5c:71
-----BEGIN CERTIFICATE-----
MIIDkTCCAnmgAwIBAgIJAOqhM6qJOChtMA0GCSqGSIb3DQEBCwUAMD0xCzAJBgNV
BAYTAnh4MQowCAYDVQQIDAF4MQowCAYDVQQKDAF4MQowCAYDVQQLDAF4MQowCAYD
VQQDDAF4MB4XDTE4MDUwMzA5MTEzNloXDTE5MDUwMzA5MTEzNlowdDELMAkGA1UE
BhMCQ0gxCzAJBgNVBAgTAlZEMREwDwYDVQQHEwhMYXVzYW5uZTENMAsGA1UEChME
RVBGTDENMAsGA1UECxMETENBMTEnMCUGA1UEAxMeaWNjbHVzdGVyMTAyLmljY2x1
c3Rlci5lcGZsLmNoMIIBIjANBgkqhkiG9w0BAQEFAAOCAQ8AMIIBCgKCAQEAqJZ9
g3GxRrNqcKpqiafSF7jK0rfniZD+eovsrcxYOMH/H+AYuHQjzh7Y4yziqSz8HV0N
HX0ZSpvHK7Dc3Fzdl8YqAaBJhSlJx3nbSCK8027zjh7sv05z73SGSfpQPZJ6Gnbn
384O0KAoBHf3uHyfxr/qEs7QvkDWCMpTI6TqXu63IR5wVM/4Kxj4qG2mFnVeiR8/
TudbBeGtKAZvN5IYaAuiiZdsYSeNG1dQhTCq0TorY3h/b0KDDAW9QN1Ac3DGjOyu
s757sjxS0SClUMYOvtAuvAg/qhONiBjWKOBGGqrR3ZRiOFbxeZzK2dnOuvY79+UA
a1YeEnUtu5TQ+0I4swIDAQABo10wWzAJBgNVHRMEAjAAMC8GA1UdEQQoMCaHBApa
JCCCHmljY2x1c3RlcjEwMi5pY2NsdXN0ZXIuZXBmbC5jaDAdBgNVHQ4EFgQUe/KS
Y0D4Gq8oVBhdEsrBA60gtzIwDQYJKoZIhvcNAQELBQADggEBACrHTyc1lwdZQXyk
C0roGD/APAQ9gI9BPZHwYIx24msw8jrayzRoo/nUvc3XjJfDji6RvdYN4mrb67wd
i/Mgq/mqOVrp+kueKNhBjaowvurjpLus89Ro/NLwxvQsSoE9pIpfFRy3XDOSmoXj
lPt9FZxjqwCFEBlSeCoX/6k4omit1RlbyhSE9z67g5beRn0bqGlIhvDoC4CpcBJu
8U/l/JtFWQOV/0yvFgFSZhI51FSNAmyEnNEPg04ViCgCA1zhuTyyufQZYxP0G5V7
fNJE48NkHpts6CiI8X9ck+2DP0VxdPxLoEc+2fLprpkdlG9Mcb2EkJ5L++MRYR14
1dJJXHE=
-----END CERTIFICATE-----
