Certificate:
    Data:
        Version: 3 (0x2)
        Serial Number: 16906851283665168488 (0xeaa133aa89382868)
    Signature Algorithm: sha256WithRSAEncryption
        Issuer: C=xx, ST=x, O=x, OU=x, CN=x
        Validity
            Not Before: May  3 09:09:42 2018 GMT
            Not After : May  3 09:09:42 2019 GMT
        Subject: C=CH, ST=VD, L=Lausanne, O=EPFL, OU=LCA1, CN=iccluster056.iccluster.epfl.ch
        Subject Public Key Info:
            Public Key Algorithm: rsaEncryption
                Public-Key: (2048 bit)
                Modulus:
                    00:b2:b0:41:02:f7:55:48:82:dd:83:1b:f4:46:20:
                    85:4e:99:42:b9:d1:54:d6:f4:af:54:b5:96:86:b1:
                    c9:57:84:ad:a0:8b:10:ff:32:5c:4e:63:65:6a:af:
                    63:69:42:4a:b0:05:1f:de:5c:47:50:09:c6:36:c6:
                    80:4e:f3:e6:3c:d1:60:29:54:08:42:4d:1e:6f:d9:
                    c7:5a:0b:14:1f:5d:9d:81:89:21:6a:cb:02:08:aa:
                    e2:b4:6e:62:fd:1a:2e:5e:45:f6:ba:ec:fe:99:0e:
                    fe:8e:14:9c:9d:48:58:d9:7a:34:7a:16:3d:71:bb:
                    40:d3:ee:4e:be:d8:6a:1f:d9:db:01:ee:cf:11:b8:
                    2f:d1:9c:1c:c3:24:35:b6:96:37:d5:4c:cf:fa:3e:
                    ff:bb:72:b6:d9:82:ea:b6:8a:a4:70:da:3b:70:06:
                    3f:44:d1:5a:09:e7:61:88:8c:25:a5:b3:0f:59:8a:
                    da:9b:be:18:5a:53:0a:00:04:b8:65:65:5f:04:2c:
                    0a:72:3d:bd:8e:2c:ae:cb:dc:90:d8:8c:ed:d4:03:
                    d1:6e:59:56:cc:26:36:6e:f5:e8:04:43:32:40:cf:
                    bd:38:f9:e1:a8:02:fa:dd:aa:60:50:95:f2:03:15:
                    e8:1b:8e:6b:fc:85:1a:2f:bd:e6:e3:e0:fe:54:f8:
                    81:3f
                Exponent: 65537 (0x10001)
        X509v3 extensions:
            X509v3 Basic Constraints: 
                CA:FALSE
            X509v3 Subject Alternative Name: 
                IP Address:10.90.39.7, DNS:iccluster056.iccluster.epfl.ch
            X509v3 Subject Key Identifier: 
                3F:92:B0:D7:B8:F2:1A:8D:B1:85:16:8D:1C:7A:32:E9:CE:A9:FD:CA
    Signature Algorithm: sha256WithRSAEncryption
         11:c6:78:9b:27:cc:a4:21:ae:43:06:ff:83:7c:56:f2:73:d0:
         3b:ca:c4:b2:2f:ae:ca:7c:6d:e9:fc:10:6c:52:2a:ac:5f:3b:
         97:50:9c:51:81:a7:97:5b:9d:69:c9:fd:44:5c:45:f0:c4:1c:
         5d:cb:b8:b5:5a:99:65:ad:5e:95:b1:c9:f2:61:23:ff:7c:97:
         8c:51:11:83:9b:97:6c:73:b1:eb:2a:f2:25:87:f8:e6:02:4e:
         d1:14:2d:57:33:b7:47:35:3b:a0:24:a3:0c:8b:c2:9e:2b:c7:
         ee:65:e6:b8:02:be:1e:0e:17:25:9a:90:53:88:f0:16:eb:b6:
         17:37:2d:0a:71:b7:d2:f2:6a:ed:28:db:d5:83:5e:1f:01:87:
         55:4c:07:a5:45:5c:d7:a4:28:18:ea:aa:9f:13:58:76:be:c8:
         0b:57:45:0b:8a:64:b4:e9:0d:b4:65:ed:91:c3:b3:1b:84:4f:
         84:3b:2f:64:3e:8a:b5:69:15:9a:9e:25:db:65:0a:d2:58:9d:
         38:76:98:76:43:bd:1a:4b:45:03:99:ee:c8:3a:f2:c8:c6:55:
         59:f0:aa:f3:8b:ef:51:6e:1f:ef:cb:f7:e2:54:c1:c2:a8:03:
         a1:e8:7e:7a:54:a7:d3:04:9a:a4:01:f6:f7:85:96:bb:d9:4d:
         e7:69:90:20
-----BEGIN CERTIFICATE-----
MIIDkTCCAnmgAwIBAgIJAOqhM6qJOChoMA0GCSqGSIb3DQEBCwUAMD0xCzAJBgNV
BAYTAnh4MQowCAYDVQQIDAF4MQowCAYDVQQKDAF4MQowCAYDVQQLDAF4MQowCAYD
VQQDDAF4MB4XDTE4MDUwMzA5MDk0MloXDTE5MDUwMzA5MDk0MlowdDELMAkGA1UE
BhMCQ0gxCzAJBgNVBAgTAlZEMREwDwYDVQQHEwhMYXVzYW5uZTENMAsGA1UEChME
RVBGTDENMAsGA1UECxMETENBMTEnMCUGA1UEAxMeaWNjbHVzdGVyMDU2LmljY2x1
c3Rlci5lcGZsLmNoMIIBIjANBgkqhkiG9w0BAQEFAAOCAQ8AMIIBCgKCAQEAsrBB
AvdVSILdgxv0RiCFTplCudFU1vSvVLWWhrHJV4StoIsQ/zJcTmNlaq9jaUJKsAUf
3lxHUAnGNsaATvPmPNFgKVQIQk0eb9nHWgsUH12dgYkhassCCKritG5i/RouXkX2
uuz+mQ7+jhScnUhY2Xo0ehY9cbtA0+5OvthqH9nbAe7PEbgv0ZwcwyQ1tpY31UzP
+j7/u3K22YLqtoqkcNo7cAY/RNFaCedhiIwlpbMPWYram74YWlMKAAS4ZWVfBCwK
cj29jiyuy9yQ2Izt1APRbllWzCY2bvXoBEMyQM+9OPnhqAL63apgUJXyAxXoG45r
/IUaL73m4+D+VPiBPwIDAQABo10wWzAJBgNVHRMEAjAAMC8GA1UdEQQoMCaHBApa
JweCHmljY2x1c3RlcjA1Ni5pY2NsdXN0ZXIuZXBmbC5jaDAdBgNVHQ4EFgQUP5Kw
17jyGo2xhRaNHHoy6c6p/cowDQYJKoZIhvcNAQELBQADggEBABHGeJsnzKQhrkMG
/4N8VvJz0DvKxLIvrsp8ben8EGxSKqxfO5dQnFGBp5dbnWnJ/URcRfDEHF3LuLVa
mWWtXpWxyfJhI/98l4xREYObl2xzsesq8iWH+OYCTtEULVczt0c1O6AkowyLwp4r
x+5l5rgCvh4OFyWakFOI8Bbrthc3LQpxt9Lyau0o29WDXh8Bh1VMB6VFXNekKBjq
qp8TWHa+yAtXRQuKZLTpDbRl7ZHDsxuET4Q7L2Q+irVpFZqeJdtlCtJYnTh2mHZD
vRpLRQOZ7sg68sjGVVnwqvOL71FuH+/L9+JUwcKoA6HofnpUp9MEmqQB9veFlrvZ
TedpkCA=
-----END CERTIFICATE-----
