Certificate:
    Data:
        Version: 3 (0x2)
        Serial Number: 16906851283665168492 (0xeaa133aa8938286c)
    Signature Algorithm: sha256WithRSAEncryption
        Issuer: C=xx, ST=x, O=x, OU=x, CN=x
        Validity
            Not Before: May  3 09:11:29 2018 GMT
            Not After : May  3 09:11:29 2019 GMT
        Subject: C=CH, ST=VD, L=Lausanne, O=EPFL, OU=LCA1, CN=iccluster093.iccluster.epfl.ch
        Subject Public Key Info:
            Public Key Algorithm: rsaEncryption
                Public-Key: (2048 bit)
                Modulus:
                    00:b6:41:54:70:5e:a4:9b:0a:40:5b:2b:d4:5a:1e:
                    6e:c9:8a:1f:ae:8e:47:77:c6:fa:fc:64:b5:68:3e:
                    d5:a5:c4:76:45:85:d9:53:2e:51:2b:db:b4:46:41:
                    06:35:3f:a1:5a:48:45:e6:52:32:bd:30:c2:25:f3:
                    39:0c:98:8f:7d:12:a2:5a:f9:f9:e8:ca:e9:09:cc:
                    b0:e2:51:2d:18:5a:ea:ee:7d:30:d7:ec:16:df:20:
                    45:4a:6f:94:81:d2:b3:2a:52:4b:23:9d:fa:21:48:
                    a7:17:09:05:b3:7a:75:39:75:da:b0:a9:59:cf:37:
                    d2:c7:2b:71:7f:5d:b5:6f:31:44:20:0d:4f:b3:3e:
                    8d:2c:a3:83:b8:4f:dc:78:55:e6:b0:ed:d3:d2:a0:
                    40:d3:1f:e3:bc:c9:3d:53:2a:ba:39:b7:8c:2f:f2:
                    fc:ee:52:76:87:48:ff:6b:98:26:e4:88:a0:54:a1:
                    dc:37:a9:ad:0c:46:4b:5d:5f:2d:7f:95:01:b1:6d:
                    50:7a:96:55:eb:4d:94:b1:0c:6b:6b:b6:aa:b1:35:
                    4e:75:97:a2:58:c3:16:00:58:5b:7e:ae:ca:9d:74:
                    b7:a8:85:09:b4:e2:05:8a:39:4c:2e:9f:da:0e:55:
                    c4:1a:f0:6f:04:03:1f:08:f5:67:03:64:0f:51:37:
                    98:51
                Exponent: 65537 (0x10001)
        X509v3 extensions:
            X509v3 Basic Constraints: 
                CA:FALSE
            X509v3 Subject Alternative Name: 
                IP Address:10.90.40.19, DNS:iccluster093.iccluster.epfl.ch
            X509v3 Subject Key Identifier: 
                17:EB:D9:7D:F8:00:C5:FE:3B:08:72:BA:D1:90:4F:6F:0F:A5:13:36
    Signature Algorithm: sha256WithRSAEncryption
         c6:37:94:9b:23:10:67:63:49:64:53:19:6b:20:a9:6c:a8:58:
         58:d2:c2:25:f7:f8:2a:b0:6f:fb:d7:6d:fc:90:c5:b7:88:15:
         04:33:79:aa:06:5e:8a:6f:fd:b6:02:0f:03:d0:0f:ba:56:69:
         d8:0b:64:b8:a1:01:e9:61:81:ae:0a:15:6d:27:89:d6:e7:9a:
         ca:60:3e:f9:4e:e0:a8:f2:7d:10:56:ed:41:de:98:f0:b5:06:
         87:fa:ae:b9:cc:81:f9:13:68:31:0e:c9:cb:40:4c:0c:c9:18:
         09:ce:86:72:ad:b1:c7:0c:ae:ae:27:a4:4e:90:6e:70:ca:b4:
         14:f7:92:2d:dc:67:4a:b3:a0:39:8b:31:f1:56:13:0c:e4:6a:
         fa:5f:cb:37:76:b0:22:f4:dc:38:c1:8d:66:e7:3f:48:27:63:
         1f:b5:13:b7:ee:28:0f:c4:bd:d3:10:4b:27:69:18:58:59:39:
         3b:79:52:4b:88:e1:ad:42:01:c9:3c:57:ef:63:4c:3b:c2:6a:
         4c:e2:18:c2:7c:b8:e0:83:50:ca:78:00:74:9c:0f:8a:57:db:
         ef:bc:d0:09:1c:66:b0:c6:7f:92:7c:c8:f4:30:de:6b:72:86:
         ca:4b:db:f4:79:36:84:9b:70:65:bc:fa:02:9b:57:be:82:39:
         45:56:25:fd
-----BEGIN CERTIFICATE-----
MIIDkTCCAnmgAwIBAgIJAOqhM6qJOChsMA0GCSqGSIb3DQEBCwUAMD0xCzAJBgNV
BAYTAnh4MQowCAYDVQQIDAF4MQowCAYDVQQKDAF4MQowCAYDVQQLDAF4MQowCAYD
VQQDDAF4MB4XDTE4MDUwMzA5MTEyOVoXDTE5MDUwMzA5MTEyOVowdDELMAkGA1UE
BhMCQ0gxCzAJBgNVBAgTAlZEMREwDwYDVQQHEwhMYXVzYW5uZTENMAsGA1UEChME
RVBGTDENMAsGA1UECxMETENBMTEnMCUGA1UEAxMeaWNjbHVzdGVyMDkzLmljY2x1
c3Rlci5lcGZsLmNoMIIBIjANBgkqhkiG9w0BAQEFAAOCAQ8AMIIBCgKCAQEAtkFU
cF6kmwpAWyvUWh5uyYofro5Hd8b6/GS1aD7VpcR2RYXZUy5RK9u0RkEGNT+hWkhF
5lIyvTDCJfM5DJiPfRKiWvn56MrpCcyw4lEtGFrq7n0w1+wW3yBFSm+UgdKzKlJL
I536IUinFwkFs3p1OXXasKlZzzfSxytxf121bzFEIA1Psz6NLKODuE/ceFXmsO3T
0qBA0x/jvMk9Uyq6ObeML/L87lJ2h0j/a5gm5IigVKHcN6mtDEZLXV8tf5UBsW1Q
epZV602UsQxra7aqsTVOdZeiWMMWAFhbfq7KnXS3qIUJtOIFijlMLp/aDlXEGvBv
BAMfCPVnA2QPUTeYUQIDAQABo10wWzAJBgNVHRMEAjAAMC8GA1UdEQQoMCaHBApa
KBOCHmljY2x1c3RlcjA5My5pY2NsdXN0ZXIuZXBmbC5jaDAdBgNVHQ4EFgQUF+vZ
ffgAxf47CHK60ZBPbw+lEzYwDQYJKoZIhvcNAQELBQADggEBAMY3lJsjEGdjSWRT
GWsgqWyoWFjSwiX3+Cqwb/vXbfyQxbeIFQQzeaoGXopv/bYCDwPQD7pWadgLZLih
Aelhga4KFW0nidbnmspgPvlO4KjyfRBW7UHemPC1Bof6rrnMgfkTaDEOyctATAzJ
GAnOhnKtsccMrq4npE6QbnDKtBT3ki3cZ0qzoDmLMfFWEwzkavpfyzd2sCL03DjB
jWbnP0gnYx+1E7fuKA/EvdMQSydpGFhZOTt5UkuI4a1CAck8V+9jTDvCakziGMJ8
uOCDUMp4AHScD4pX2++80AkcZrDGf5J8yPQw3mtyhspL2/R5NoSbcGW8+gKbV76C
OUVWJf0=
-----END CERTIFICATE-----
