Certificate:
    Data:
        Version: 3 (0x2)
        Serial Number: 16906851283665168495 (0xeaa133aa8938286f)
    Signature Algorithm: sha256WithRSAEncryption
        Issuer: C=xx, ST=x, O=x, OU=x, CN=x
        Validity
            Not Before: May  3 09:11:52 2018 GMT
            Not After : May  3 09:11:52 2019 GMT
        Subject: C=CH, ST=VD, L=Lausanne, O=EPFL, OU=LCA1, CN=iccluster104.iccluster.epfl.ch
        Subject Public Key Info:
            Public Key Algorithm: rsaEncryption
                Public-Key: (2048 bit)
                Modulus:
                    00:a4:cc:46:d0:77:7c:3e:b1:72:03:3e:03:b4:55:
                    44:f6:c9:f3:26:c8:9e:6e:01:1f:d9:09:9e:87:7f:
                    25:76:7a:a0:ec:5d:85:c0:0e:72:91:48:34:1c:07:
                    28:9f:e5:3b:4b:1a:ef:d0:67:50:57:2e:8b:36:db:
                    e8:a8:2a:60:4b:bf:ab:a4:cc:2e:6d:66:3a:a9:1f:
                    72:dc:c5:44:37:b9:bb:05:73:a5:ac:a5:c9:4a:3b:
                    c1:d0:2a:1a:35:b3:54:60:00:4e:c6:e8:53:a6:45:
                    36:9c:af:15:7c:b1:cd:b2:7d:b0:a2:9f:53:62:e4:
                    8a:d1:c8:a6:dd:98:35:6d:23:06:41:31:84:1f:16:
                    6f:66:0f:9e:f8:87:8e:c0:c5:3c:08:78:39:7b:88:
                    2c:ec:56:3b:a4:42:af:a9:50:2b:3a:ab:1c:b2:67:
                    1b:d6:46:8a:95:05:44:3f:e0:03:3e:61:93:3b:c8:
                    e1:ea:db:83:25:66:bd:8e:1a:7c:81:d2:92:1b:a9:
                    6b:7f:65:92:b1:ca:71:ed:1f:06:7f:b4:6e:67:3c:
                    19:ce:b4:95:95:89:02:81:57:14:78:73:bd:a4:07:
                    6c:a7:60:b1:ab:33:57:cd:97:2b:20:eb:98:c0:95:
                    e5:77:70:f9:99:5c:c2:f6:f0:3b:dd:21:b6:da:d2:
                    9d:61
                Exponent: 65537 (0x10001)
        X509v3 extensions:
            X509v3 Basic Constraints: 
                CA:FALSE
            X509v3 Subject Alternative Name: 
                IP Address:10.90.36.34, DNS:iccluster104.iccluster.epfl.ch
            X509v3 Subject Key Identifier: 
                2A:ED:9A:9F:2C:48:4D:24:10:16:15:38:30:6E:FB:DB:C3:15:4C:FD
    Signature Algorithm: sha256WithRSAEncryption
         60:43:93:47:5c:ab:58:36:8e:3f:39:a7:71:d2:b9:d9:e7:c7:
         73:1f:a1:db:46:2e:53:5a:90:b5:43:e9:cb:3a:ea:e0:2b:c7:
         d5:67:71:ce:3a:d8:20:e9:5a:16:5d:85:00:fb:01:8b:90:23:
         61:08:1a:23:4a:48:52:f6:53:4c:d1:11:46:01:b9:78:18:cb:
         56:ad:d1:9c:65:05:5c:f5:ba:04:f0:6d:f2:50:c6:f8:38:6d:
         70:16:63:29:2b:5f:89:87:84:44:98:59:9c:f5:02:40:a4:2e:
         4d:b3:cf:35:2e:aa:80:4c:2c:67:6f:fd:ab:60:2c:12:40:0a:
         af:84:62:08:bb:26:a0:ec:6b:47:2c:4f:55:ec:da:a4:f8:58:
         0a:6c:3b:5c:f4:3d:84:35:bf:e9:cd:ef:82:35:14:f2:1d:ec:
         17:79:12:d8:8a:c7:7e:0a:3e:99:5a:c0:19:0c:ee:60:26:43:
         32:8e:c4:ff:d3:90:f6:1a:3a:ef:ec:66:94:23:26:55:9a:4b:
         14:c5:27:09:44:31:51:d0:48:9d:aa:5f:99:08:0a:e2:31:66:
         ea:4f:0f:ca:41:ed:6d:b0:9f:52:44:e8:2f:47:95:4b:7e:29:
         ea:37:43:66:9b:15:5b:20:52:ba:49:76:ed:3b:d3:ec:08:4d:
         ef:fa:89:67
-----BEGIN CERTIFICATE-----
MIIDkTCCAnmgAwIBAgIJAOqhM6qJOChvMA0GCSqGSIb3DQEBCwUAMD0xCzAJBgNV
BAYTAnh4MQowCAYDVQQIDAF4MQowCAYDVQQKDAF4MQowCAYDVQQLDAF4MQowCAYD
VQQDDAF4MB4XDTE4MDUwMzA5MTE1MloXDTE5MDUwMzA5MTE1MlowdDELMAkGA1UE
BhMCQ0gxCzAJBgNVBAgTAlZEMREwDwYDVQQHEwhMYXVzYW5uZTENMAsGA1UEChME
RVBGTDENMAsGA1UECxMETENBMTEnMCUGA1UEAxMeaWNjbHVzdGVyMTA0LmljY2x1
c3Rlci5lcGZsLmNoMIIBIjANBgkqhkiG9w0BAQEFAAOCAQ8AMIIBCgKCAQEApMxG
0Hd8PrFyAz4DtFVE9snzJsiebgEf2Qmeh38ldnqg7F2FwA5ykUg0HAcon+U7Sxrv
0GdQVy6LNtvoqCpgS7+rpMwubWY6qR9y3MVEN7m7BXOlrKXJSjvB0CoaNbNUYABO
xuhTpkU2nK8VfLHNsn2wop9TYuSK0cim3Zg1bSMGQTGEHxZvZg+e+IeOwMU8CHg5
e4gs7FY7pEKvqVArOqscsmcb1kaKlQVEP+ADPmGTO8jh6tuDJWa9jhp8gdKSG6lr
f2WSscpx7R8Gf7RuZzwZzrSVlYkCgVcUeHO9pAdsp2CxqzNXzZcrIOuYwJXld3D5
mVzC9vA73SG22tKdYQIDAQABo10wWzAJBgNVHRMEAjAAMC8GA1UdEQQoMCaHBApa
JCKCHmljY2x1c3RlcjEwNC5pY2NsdXN0ZXIuZXBmbC5jaDAdBgNVHQ4EFgQUKu2a
nyxITSQQFhU4MG7728MVTP0wDQYJKoZIhvcNAQELBQADggEBAGBDk0dcq1g2jj85
p3HSudnnx3MfodtGLlNakLVD6cs66uArx9Vncc462CDpWhZdhQD7AYuQI2EIGiNK
SFL2U0zREUYBuXgYy1at0ZxlBVz1ugTwbfJQxvg4bXAWYykrX4mHhESYWZz1AkCk
Lk2zzzUuqoBMLGdv/atgLBJACq+EYgi7JqDsa0csT1Xs2qT4WApsO1z0PYQ1v+nN
74I1FPId7Bd5EtiKx34KPplawBkM7mAmQzKOxP/TkPYaOu/sZpQjJlWaSxTFJwlE
MVHQSJ2qX5kICuIxZupPD8pB7W2wn1JE6C9HlUt+Keo3Q2abFVsgUrpJdu070+wI
Te/6iWc=
-----END CERTIFICATE-----
