Certificate:
    Data:
        Version: 3 (0x2)
        Serial Number: 16906851283665168491 (0xeaa133aa8938286b)
    Signature Algorithm: sha256WithRSAEncryption
        Issuer: C=xx, ST=x, O=x, OU=x, CN=x
        Validity
            Not Before: May  3 09:11:23 2018 GMT
            Not After : May  3 09:11:23 2019 GMT
        Subject: C=CH, ST=VD, L=Lausanne, O=EPFL, OU=LCA1, CN=iccluster081.iccluster.epfl.ch
        Subject Public Key Info:
            Public Key Algorithm: rsaEncryption
                Public-Key: (2048 bit)
                Modulus:
                    00:aa:46:78:72:e2:a8:8a:d4:ff:d8:a0:86:36:ca:
                    c7:bc:8e:2d:dc:78:d6:a5:b4:56:af:fc:a5:df:fc:
                    a2:a3:4f:bd:1a:b9:27:fc:81:64:95:21:e9:8c:65:
                    b2:0c:a3:41:7d:17:13:47:5a:bd:d7:1f:d7:5a:a7:
                    66:d4:6d:f8:1e:10:ad:7f:97:86:6c:f3:1b:ab:be:
                    47:4a:86:63:8e:c1:db:5a:11:e7:c4:98:4b:d0:f0:
                    7b:df:80:b9:84:db:12:e7:47:f5:9b:ba:e4:f3:9e:
                    93:b3:a1:6f:72:d9:56:98:84:8a:8f:fe:cc:0d:7f:
                    98:04:98:cd:3a:fc:7a:ec:40:d5:bb:2b:2e:78:1d:
                    10:12:4d:3f:9e:80:2a:46:a1:b8:ba:e0:45:c0:c9:
                    87:50:c2:ca:bc:6e:06:15:7d:57:97:8a:38:2c:94:
                    51:00:80:ad:0d:4a:2a:d1:f3:1d:ce:80:74:cb:8e:
                    dd:04:d2:8b:eb:c9:2b:59:30:4b:34:c3:e1:b2:50:
                    9d:42:21:af:4f:f8:48:5c:31:bc:3d:50:0b:5c:99:
                    40:3e:10:17:12:f5:f0:37:72:8f:13:6d:17:c7:fb:
                    b4:c8:18:a4:48:20:d2:8a:fa:c5:8d:1c:41:53:61:
                    83:16:40:9c:a9:56:48:64:9c:70:8e:de:1c:69:a3:
                    13:33
                Exponent: 65537 (0x10001)
        X509v3 extensions:
            X509v3 Basic Constraints: 
                CA:FALSE
            X509v3 Subject Alternative Name: 
                IP Address:10.90.40.7, DNS:iccluster081.iccluster.epfl.ch
            X509v3 Subject Key Identifier: 
                5B:15:7A:1B:83:66:CE:E3:C6:83:C8:C2:76:EE:59:96:13:99:C3:CA
    Signature Algorithm: sha256WithRSAEncryption
         38:32:87:1d:f2:61:2b:70:60:58:24:f7:66:a9:30:ba:76:30:
         3d:a6:ac:9f:48:ae:d5:e5:c8:3f:30:f3:4c:ea:f5:34:88:17:
         ff:ae:67:c9:27:49:d5:15:e7:c2:46:6d:78:2a:05:ef:87:3a:
         71:5e:6b:54:b9:2b:a5:5a:ba:5b:d8:c5:ed:a2:3f:5d:11:4a:
         d0:f6:d9:f5:83:d1:2e:24:12:cd:65:2a:8d:06:ad:0b:d3:74:
         c9:eb:f8:d4:74:64:dd:95:88:7f:34:05:e7:b0:1c:ba:95:22:
         5d:c7:58:67:ce:e4:84:93:f6:3f:e9:3a:cd:db:09:3e:74:b3:
         24:fb:1c:ce:4b:20:74:6c:76:d9:57:73:ce:5b:62:94:0f:50:
         be:c0:9b:17:bb:3c:19:7f:0b:73:d0:12:a2:f2:91:48:19:1f:
         8f:86:fe:2e:64:a8:d1:47:6a:d8:79:c1:eb:6e:f5:e1:10:ca:
         92:9d:03:69:fa:f6:bd:c9:f3:e5:d1:86:84:e4:dc:a5:8a:55:
         65:d5:d0:7d:0f:47:04:71:d9:80:e5:ad:f4:7f:4b:4e:a2:4f:
         89:dd:78:b3:a1:ec:db:a2:4d:26:47:8a:ca:6d:ca:80:d3:d7:
         f3:82:cb:2b:75:c2:46:32:37:b7:64:5c:5d:f9:7f:97:75:d6:
         0a:97:69:27
-----BEGIN CERTIFICATE-----
MIIDkTCCAnmgAwIBAgIJAOqhM6qJOChrMA0GCSqGSIb3DQEBCwUAMD0xCzAJBgNV
BAYTAnh4MQowCAYDVQQIDAF4MQowCAYDVQQKDAF4MQowCAYDVQQLDAF4MQowCAYD
VQQDDAF4MB4XDTE4MDUwMzA5MTEyM1oXDTE5MDUwMzA5MTEyM1owdDELMAkGA1UE
BhMCQ0gxCzAJBgNVBAgTAlZEMREwDwYDVQQHEwhMYXVzYW5uZTENMAsGA1UEChME
RVBGTDENMAsGA1UECxMETENBMTEnMCUGA1UEAxMeaWNjbHVzdGVyMDgxLmljY2x1
c3Rlci5lcGZsLmNoMIIBIjANBgkqhkiG9w0BAQEFAAOCAQ8AMIIBCgKCAQEAqkZ4
cuKoitT/2KCGNsrHvI4t3HjWpbRWr/yl3/yio0+9Grkn/IFklSHpjGWyDKNBfRcT
R1q91x/XWqdm1G34HhCtf5eGbPMbq75HSoZjjsHbWhHnxJhL0PB734C5hNsS50f1
m7rk856Ts6FvctlWmISKj/7MDX+YBJjNOvx67EDVuysueB0QEk0/noAqRqG4uuBF
wMmHUMLKvG4GFX1Xl4o4LJRRAICtDUoq0fMdzoB0y47dBNKL68krWTBLNMPhslCd
QiGvT/hIXDG8PVALXJlAPhAXEvXwN3KPE20Xx/u0yBikSCDSivrFjRxBU2GDFkCc
qVZIZJxwjt4caaMTMwIDAQABo10wWzAJBgNVHRMEAjAAMC8GA1UdEQQoMCaHBApa
KAeCHmljY2x1c3RlcjA4MS5pY2NsdXN0ZXIuZXBmbC5jaDAdBgNVHQ4EFgQUWxV6
G4NmzuPGg8jCdu5ZlhOZw8owDQYJKoZIhvcNAQELBQADggEBADgyhx3yYStwYFgk
92apMLp2MD2mrJ9IrtXlyD8w80zq9TSIF/+uZ8knSdUV58JGbXgqBe+HOnFea1S5
K6VaulvYxe2iP10RStD22fWD0S4kEs1lKo0GrQvTdMnr+NR0ZN2ViH80BeewHLqV
Il3HWGfO5IST9j/pOs3bCT50syT7HM5LIHRsdtlXc85bYpQPUL7Amxe7PBl/C3PQ
EqLykUgZH4+G/i5kqNFHath5wetu9eEQypKdA2n69r3J8+XRhoTk3KWKVWXV0H0P
RwRx2YDlrfR/S06iT4ndeLOh7NuiTSZHisptyoDT1/OCyyt1wkYyN7dkXF35f5d1
1gqXaSc=
-----END CERTIFICATE-----
