Certificate:
    Data:
        Version: 3 (0x2)
        Serial Number: 16906851283665168494 (0xeaa133aa8938286e)
    Signature Algorithm: sha256WithRSAEncryption
        Issuer: C=xx, ST=x, O=x, OU=x, CN=x
        Validity
            Not Before: May  3 09:11:43 2018 GMT
            Not After : May  3 09:11:43 2019 GMT
        Subject: C=CH, ST=VD, L=Lausanne, O=EPFL, OU=LCA1, CN=iccluster103.iccluster.epfl.ch
        Subject Public Key Info:
            Public Key Algorithm: rsaEncryption
                Public-Key: (2048 bit)
                Modulus:
                    00:b2:96:6c:ea:93:f4:66:0b:83:cd:b0:82:07:93:
                    9e:d9:d2:b2:96:66:9f:3b:12:9c:1f:d5:93:f1:3b:
                    0a:a7:44:12:fd:9a:e9:fb:5c:67:7d:04:a6:94:e5:
                    b0:73:bb:25:e0:9b:ec:f0:58:8e:d7:6e:b2:18:03:
                    60:e9:b1:1c:9c:5a:62:5f:37:6f:c6:cd:f8:02:13:
                    89:fa:c0:e8:10:9f:0c:87:fd:f9:2c:44:30:15:f6:
                    95:81:79:a1:66:2c:67:ed:ea:6c:c6:13:ca:0a:0c:
                    79:a7:96:dc:81:ed:d8:65:61:40:3f:92:7b:a0:99:
                    bd:07:df:e0:c7:ec:e3:c3:07:46:66:1f:e0:71:70:
                    d1:68:e2:bb:fd:d0:2a:33:0d:75:b1:5e:f0:dc:27:
                    a4:76:bc:58:48:63:48:8f:42:66:11:48:e0:a8:20:
                    38:b0:b2:b5:25:c1:cd:a2:ef:b6:e4:37:05:e3:6e:
                    c8:93:b6:45:80:39:a6:c9:74:f0:cd:88:56:44:05:
                    a5:30:0b:9b:8d:78:c3:13:97:4d:19:b8:5b:b3:b0:
                    09:ea:f9:48:e0:33:86:3a:4b:a3:7c:75:02:54:b8:
                    8d:ca:37:c4:e6:31:b7:f0:1c:81:22:4d:4c:45:cf:
                    9d:1e:19:c7:6d:ca:cb:93:94:92:33:2b:57:ba:74:
                    cd:d9
                Exponent: 65537 (0x10001)
        X509v3 extensions:
            X509v3 Basic Constraints: 
                CA:FALSE
            X509v3 Subject Alternative Name: 
                IP Address:10.90.36.33, DNS:iccluster103.iccluster.epfl.ch
            X509v3 Subject Key Identifier: 
                42:74:F3:CF:DE:FF:CC:22:B3:C1:90:6C:8A:8C:EC:32:65:59:04:84
    Signature Algorithm: sha256WithRSAEncryption
         98:92:ba:87:83:37:0b:a4:98:dc:42:60:41:3a:e0:b0:01:13:
         60:e3:1e:bb:46:14:87:e0:c4:4a:be:66:66:13:89:fd:24:b7:
         5b:98:ee:29:dc:ce:62:70:fd:43:50:2e:5e:7e:24:77:17:b2:
         db:46:50:a7:4d:18:57:13:ea:db:e8:d9:49:3d:23:29:64:99:
         ad:51:5c:49:69:ae:9d:b7:74:a3:82:7b:c8:00:a7:66:d0:26:
         70:d3:03:e0:bc:4b:05:bb:76:fa:2c:7f:14:ed:b0:e4:05:db:
         29:a6:80:3a:b8:f9:20:95:46:36:79:7d:e0:99:a8:1f:9e:06:
         0e:50:02:a9:2c:dd:a6:39:c1:22:c3:b2:ce:a3:7f:0e:27:a9:
         82:cd:45:73:be:5a:46:f7:e4:4d:8a:5c:f4:37:ca:3f:0b:6b:
         2d:cb:8b:a5:5c:ba:fe:d3:8c:21:bd:b4:6e:f1:96:dc:85:29:
         8c:fa:b5:97:70:85:0e:14:26:f1:f6:8f:9b:31:9e:29:ce:8f:
         7e:dd:0b:4b:4f:9a:3b:bf:ea:bf:95:c7:a2:7f:f5:89:98:3a:
         21:bd:e8:92:19:3b:2d:28:55:eb:68:5a:f5:d6:df:4b:83:88:
         72:b4:98:91:79:a5:f1:8c:34:99:f0:eb:c4:cd:4c:fc:65:41:
         0b:dc:8c:0e
-----BEGIN CERTIFICATE-----
MIIDkTCCAnmgAwIBAgIJAOqhM6qJOChuMA0GCSqGSIb3DQEBCwUAMD0xCzAJBgNV
BAYTAnh4MQowCAYDVQQIDAF4MQowCAYDVQQKDAF4MQowCAYDVQQLDAF4MQowCAYD
VQQDDAF4MB4XDTE4MDUwMzA5MTE0M1oXDTE5MDUwMzA5MTE0M1owdDELMAkGA1UE
BhMCQ0gxCzAJBgNVBAgTAlZEMREwDwYDVQQHEwhMYXVzYW5uZTENMAsGA1UEChME
RVBGTDENMAsGA1UECxMETENBMTEnMCUGA1UEAxMeaWNjbHVzdGVyMTAzLmljY2x1
c3Rlci5lcGZsLmNoMIIBIjANBgkqhkiG9w0BAQEFAAOCAQ8AMIIBCgKCAQEAspZs
6pP0ZguDzbCCB5Oe2dKylmafOxKcH9WT8TsKp0QS/Zrp+1xnfQSmlOWwc7sl4Jvs
8FiO126yGANg6bEcnFpiXzdvxs34AhOJ+sDoEJ8Mh/35LEQwFfaVgXmhZixn7eps
xhPKCgx5p5bcge3YZWFAP5J7oJm9B9/gx+zjwwdGZh/gcXDRaOK7/dAqMw11sV7w
3CekdrxYSGNIj0JmEUjgqCA4sLK1JcHNou+25DcF427Ik7ZFgDmmyXTwzYhWRAWl
MAubjXjDE5dNGbhbs7AJ6vlI4DOGOkujfHUCVLiNyjfE5jG38ByBIk1MRc+dHhnH
bcrLk5SSMytXunTN2QIDAQABo10wWzAJBgNVHRMEAjAAMC8GA1UdEQQoMCaHBApa
JCGCHmljY2x1c3RlcjEwMy5pY2NsdXN0ZXIuZXBmbC5jaDAdBgNVHQ4EFgQUQnTz
z97/zCKzwZBsiozsMmVZBIQwDQYJKoZIhvcNAQELBQADggEBAJiSuoeDNwukmNxC
YEE64LABE2DjHrtGFIfgxEq+ZmYTif0kt1uY7inczmJw/UNQLl5+JHcXsttGUKdN
GFcT6tvo2Uk9Iylkma1RXElprp23dKOCe8gAp2bQJnDTA+C8SwW7dvosfxTtsOQF
2ymmgDq4+SCVRjZ5feCZqB+eBg5QAqks3aY5wSLDss6jfw4nqYLNRXO+Wkb35E2K
XPQ3yj8Lay3Li6Vcuv7TjCG9tG7xltyFKYz6tZdwhQ4UJvH2j5sxninOj37dC0tP
mju/6r+Vx6J/9YmYOiG96JIZOy0oVetoWvXW30uDiHK0mJF5pfGMNJnw68TNTPxl
QQvcjA4=
-----END CERTIFICATE-----
