Certificate:
    Data:
        Version: 3 (0x2)
        Serial Number: 16906851283665168487 (0xeaa133aa89382867)
    Signature Algorithm: sha256WithRSAEncryption
        Issuer: C=xx, ST=x, O=x, OU=x, CN=x
        Validity
            Not Before: May  3 09:09:28 2018 GMT
            Not After : May  2 09:09:28 2021 GMT
        Subject: C=xx, ST=x, O=x, OU=x, CN=x
        Subject Public Key Info:
            Public Key Algorithm: rsaEncryption
                Public-Key: (2048 bit)
                Modulus:
                    00:c7:17:1b:88:e6:44:7d:06:b2:60:d6:ab:7e:42:
                    92:69:77:8b:82:20:fc:da:4e:01:af:ae:5b:8b:af:
                    06:7a:2f:39:a6:e0:50:75:57:c1:ce:98:8e:8a:8c:
                    84:be:73:75:17:cc:b0:ad:14:9a:ca:13:e0:15:00:
                    46:e4:ef:cd:4f:9e:1b:0d:5c:04:d2:3d:89:41:f6:
                    13:1e:a9:9c:90:eb:69:97:e9:4f:4c:c1:a6:7a:4a:
                    43:d3:d6:e6:38:b6:3d:f5:ba:03:d9:bb:90:c6:11:
                    24:16:8f:ec:ff:97:af:f7:ca:e1:20:40:71:4f:f1:
                    02:e8:8c:cc:0d:c0:84:e8:51:eb:4b:16:bf:40:47:
                    95:8d:0e:84:f0:bb:14:50:17:48:35:ef:45:6b:2b:
                    c5:aa:32:b8:89:e2:24:3f:76:0a:2b:81:79:f8:5f:
                    f0:1d:35:00:45:84:00:db:e9:a8:f0:69:95:ff:6a:
                    40:3c:51:70:5c:8e:da:7e:e8:ed:c8:72:68:42:2c:
                    21:e4:77:ca:cd:f5:ea:d8:1b:c5:e4:c1:5f:ce:35:
                    46:2e:f3:41:5f:2c:5b:93:d5:fa:35:74:2f:70:7e:
                    6a:bc:e9:2b:4d:f0:87:bf:4d:2f:a1:b7:b8:05:f7:
                    df:91:6e:35:63:77:8f:f3:01:7e:05:d6:f5:d3:52:
                    28:bd
                Exponent: 65537 (0x10001)
        X509v3 extensions:
            X509v3 Subject Key Identifier: 
                A6:7D:78:E2:9A:D2:CE:B6:FC:95:69:2E:F8:57:28:55:F0:C8:72:44
            X509v3 Authority Key Identifier: 
                keyid:A6:7D:78:E2:9A:D2:CE:B6:FC:95:69:2E:F8:57:28:55:F0:C8:72:44

            X509v3 Basic Constraints: 
                CA:TRUE
    Signature Algorithm: sha256WithRSAEncryption
         8f:51:13:86:32:d6:21:95:f8:94:33:8b:38:14:c1:a6:45:98:
         80:90:c1:19:f2:b9:cb:d9:f9:53:84:d4:08:b7:28:6f:e5:9b:
         f1:6d:6e:41:c8:ce:54:d7:72:3d:50:39:ec:40:29:d4:f5:54:
         8f:57:94:75:44:e2:b0:bd:0e:5f:c3:f4:9e:91:26:99:a8:0d:
         0c:3c:a5:91:bc:52:e9:c1:fa:ed:89:05:8c:fa:69:67:94:01:
         d9:89:6b:5c:9e:43:8d:a9:a9:bc:ca:14:31:4e:1b:a4:0b:b0:
         5c:21:47:e5:f0:53:77:9d:b9:4c:c5:d7:22:c1:1f:be:71:e0:
         aa:6c:32:ce:18:a4:e4:45:ab:01:c3:db:ed:dd:ab:d1:9c:2b:
         3a:3a:9d:a1:37:8c:04:61:25:4f:74:80:9f:38:35:bd:1f:fe:
         e1:5b:71:74:f8:82:8e:39:b7:15:8d:d2:96:4c:9e:ac:f7:21:
         52:15:73:66:e1:59:4f:23:83:e9:52:ea:c3:26:9c:dc:b1:90:
         aa:67:4f:d4:e3:c2:f2:56:44:2f:cb:59:41:b8:c7:80:11:7f:
         fb:8b:db:d4:05:0b:c6:ac:5f:f8:73:fc:40:88:0c:10:d2:2d:
         b4:76:85:c3:4f:50:6a:d4:e2:a5:39:d9:c7:fb:87:d5:02:5a:
         26:c6:03:64
-----BEGIN CERTIFICATE-----
MIIDTTCCAjWgAwIBAgIJAOqhM6qJOChnMA0GCSqGSIb3DQEBCwUAMD0xCzAJBgNV
BAYTAnh4MQowCAYDVQQIDAF4MQowCAYDVQQKDAF4MQowCAYDVQQLDAF4MQowCAYD
VQQDDAF4MB4XDTE4MDUwMzA5MDkyOFoXDTIxMDUwMjA5MDkyOFowPTELMAkGA1UE
BhMCeHgxCjAIBgNVBAgMAXgxCjAIBgNVBAoMAXgxCjAIBgNVBAsMAXgxCjAIBgNV
BAMMAXgwggEiMA0GCSqGSIb3DQEBAQUAA4IBDwAwggEKAoIBAQDHFxuI5kR9BrJg
1qt+QpJpd4uCIPzaTgGvrluLrwZ6Lzmm4FB1V8HOmI6KjIS+c3UXzLCtFJrKE+AV
AEbk781PnhsNXATSPYlB9hMeqZyQ62mX6U9MwaZ6SkPT1uY4tj31ugPZu5DGESQW
j+z/l6/3yuEgQHFP8QLojMwNwIToUetLFr9AR5WNDoTwuxRQF0g170VrK8WqMriJ
4iQ/dgorgXn4X/AdNQBFhADb6ajwaZX/akA8UXBcjtp+6O3IcmhCLCHkd8rN9erY
G8XkwV/ONUYu80FfLFuT1fo1dC9wfmq86StN8Ie/TS+ht7gF99+RbjVjd4/zAX4F
1vXTUii9AgMBAAGjUDBOMB0GA1UdDgQWBBSmfXjimtLOtvyVaS74VyhV8MhyRDAf
BgNVHSMEGDAWgBSmfXjimtLOtvyVaS74VyhV8MhyRDAMBgNVHRMEBTADAQH/MA0G
CSqGSIb3DQEBCwUAA4IBAQCPUROGMtYhlfiUM4s4FMGmRZiAkMEZ8rnL2flThNQI
tyhv5ZvxbW5ByM5U13I9UDnsQCnU9VSPV5R1ROKwvQ5fw/SekSaZqA0MPKWRvFLp
wfrtiQWM+mlnlAHZiWtcnkONqam8yhQxThukC7BcIUfl8FN3nblMxdciwR++ceCq
bDLOGKTkRasBw9vt3avRnCs6Op2hN4wEYSVPdICfODW9H/7hW3F0+IKOObcVjdKW
TJ6s9yFSFXNm4VlPI4PpUurDJpzcsZCqZ0/U48LyVkQvy1lBuMeAEX/7i9vUBQvG
rF/4c/xAiAwQ0i20doXDT1Bq1OKlOdnH+4fVAlomxgNk
-----END CERTIFICATE-----
