Certificate:
    Data:
        Version: 3 (0x2)
        Serial Number: 10636610615923157951 (0x939cd500003fabbf)
    Signature Algorithm: sha256WithRSAEncryption
        Issuer: C=xx, ST=x, O=x, OU=x, CN=x
        Validity
            Not Before: Apr 12 12:51:39 2018 GMT
            Not After : Apr 11 12:51:39 2021 GMT
        Subject: C=xx, ST=x, O=x, OU=x, CN=x
        Subject Public Key Info:
            Public Key Algorithm: rsaEncryption
                Public-Key: (2048 bit)
                Modulus:
                    00:a6:4e:60:e6:af:92:3f:00:16:2f:f9:bc:1e:a8:
                    da:aa:1c:11:a3:e8:ee:72:9e:ac:56:05:42:76:17:
                    e6:ef:22:52:a7:bb:19:f9:34:d9:0b:dd:5d:58:d6:
                    05:fb:8d:1c:1e:5a:98:a2:8d:3f:5a:5e:5c:09:1b:
                    15:8a:e5:04:82:ff:3a:92:b9:d0:46:77:13:b3:8e:
                    79:b8:45:fd:40:00:a2:07:0d:1d:2c:f7:5b:23:c3:
                    3d:f0:84:e1:7e:7f:f8:d8:52:da:a8:bb:31:b9:6f:
                    c7:79:37:73:2c:a4:78:a7:03:0b:0e:48:a6:82:07:
                    e8:e7:09:26:db:40:17:5d:fd:86:74:e9:99:2a:1a:
                    57:2c:17:20:79:1d:e7:78:94:22:f5:5a:0c:af:30:
                    62:24:d6:50:bf:3b:59:d8:99:7b:10:5f:df:6c:2a:
                    97:5b:e1:8b:cf:57:5e:97:2f:22:0e:54:01:0a:84:
                    74:41:06:56:16:05:bc:8d:88:7f:ab:b5:7d:47:ed:
                    f8:53:4d:e4:ce:8a:0a:73:42:db:1f:a5:c0:bb:d4:
                    54:ce:49:d8:6e:0e:c0:58:d4:f0:66:9d:f0:4d:ed:
                    d6:9f:69:75:3d:95:48:2a:0a:34:2d:81:f2:48:b6:
                    4f:00:8e:18:59:4d:e7:43:d3:b9:1d:aa:01:4c:cd:
                    2a:35
                Exponent: 65537 (0x10001)
        X509v3 extensions:
            X509v3 Subject Key Identifier: 
                4B:0E:E8:78:9B:AD:E3:88:4F:B9:51:97:91:F5:82:A2:8C:FD:1E:97
            X509v3 Authority Key Identifier: 
                keyid:4B:0E:E8:78:9B:AD:E3:88:4F:B9:51:97:91:F5:82:A2:8C:FD:1E:97

            X509v3 Basic Constraints: 
                CA:TRUE
    Signature Algorithm: sha256WithRSAEncryption
         7c:26:76:41:b3:81:f7:40:d8:87:f2:1b:33:3b:24:f2:a2:c6:
         41:6c:40:bc:16:9c:4b:4f:55:91:1b:67:23:72:f3:1a:24:f8:
         64:09:1b:67:fc:ab:10:7d:96:23:9a:36:f5:a6:f2:e7:23:74:
         39:8d:8b:d6:8e:81:73:a4:73:80:73:b7:f0:c9:56:c9:be:fd:
         f3:ea:fb:35:32:8c:95:4d:00:05:c0:fe:09:ba:e3:0f:f6:43:
         40:ad:bc:bd:c0:5d:61:32:b7:92:03:eb:71:99:aa:5d:38:c3:
         64:75:c6:3f:5e:ee:1d:5f:e8:a5:7d:3d:8b:1d:93:26:2f:b5:
         b0:b7:bb:43:1e:fe:a4:0a:f2:6a:4f:0a:1f:af:36:8b:be:7b:
         16:eb:81:e2:6f:56:1d:ca:f4:07:c2:79:b9:a5:d4:45:82:86:
         a0:07:2e:3b:32:11:2c:05:10:68:fd:d6:01:17:2c:06:cc:eb:
         3c:72:bc:da:6e:b0:fd:44:a7:b0:09:20:1b:6f:19:5a:f8:e9:
         38:9d:38:3b:23:d1:6c:db:28:33:da:48:a2:ae:ab:17:c2:54:
         27:6e:1a:13:24:af:45:e3:b6:04:31:f5:49:e4:c1:e2:a7:fe:
         ee:bb:1b:5e:98:1f:7d:e4:02:a2:f6:f3:15:53:5b:08:b5:02:
         4c:ea:ca:e5
-----BEGIN CERTIFICATE-----
MIIDTTCCAjWgAwIBAgIJAJOc1QAAP6u/MA0GCSqGSIb3DQEBCwUAMD0xCzAJBgNV
BAYTAnh4MQowCAYDVQQIDAF4MQowCAYDVQQKDAF4MQowCAYDVQQLDAF4MQowCAYD
VQQDDAF4MB4XDTE4MDQxMjEyNTEzOVoXDTIxMDQxMTEyNTEzOVowPTELMAkGA1UE
BhMCeHgxCjAIBgNVBAgMAXgxCjAIBgNVBAoMAXgxCjAIBgNVBAsMAXgxCjAIBgNV
BAMMAXgwggEiMA0GCSqGSIb3DQEBAQUAA4IBDwAwggEKAoIBAQCmTmDmr5I/ABYv
+bweqNqqHBGj6O5ynqxWBUJ2F+bvIlKnuxn5NNkL3V1Y1gX7jRweWpiijT9aXlwJ
GxWK5QSC/zqSudBGdxOzjnm4Rf1AAKIHDR0s91sjwz3whOF+f/jYUtqouzG5b8d5
N3MspHinAwsOSKaCB+jnCSbbQBdd/YZ06ZkqGlcsFyB5Hed4lCL1WgyvMGIk1lC/
O1nYmXsQX99sKpdb4YvPV16XLyIOVAEKhHRBBlYWBbyNiH+rtX1H7fhTTeTOigpz
QtsfpcC71FTOSdhuDsBY1PBmnfBN7dafaXU9lUgqCjQtgfJItk8AjhhZTedD07kd
qgFMzSo1AgMBAAGjUDBOMB0GA1UdDgQWBBRLDuh4m63jiE+5UZeR9YKijP0elzAf
BgNVHSMEGDAWgBRLDuh4m63jiE+5UZeR9YKijP0elzAMBgNVHRMEBTADAQH/MA0G
CSqGSIb3DQEBCwUAA4IBAQB8JnZBs4H3QNiH8hszOyTyosZBbEC8FpxLT1WRG2cj
cvMaJPhkCRtn/KsQfZYjmjb1pvLnI3Q5jYvWjoFzpHOAc7fwyVbJvv3z6vs1MoyV
TQAFwP4JuuMP9kNArby9wF1hMreSA+txmapdOMNkdcY/Xu4dX+ilfT2LHZMmL7Ww
t7tDHv6kCvJqTwofrzaLvnsW64Hib1YdyvQHwnm5pdRFgoagBy47MhEsBRBo/dYB
FywGzOs8crzabrD9RKewCSAbbxla+Ok4nTg7I9Fs2ygz2kiirqsXwlQnbhoTJK9F
47YEMfVJ5MHip/7uuxtemB995AKi9vMVU1sItQJM6srl
-----END CERTIFICATE-----
