Certificate:
    Data:
        Version: 3 (0x2)
        Serial Number: 10636610615923157952 (0x939cd500003fabc0)
    Signature Algorithm: sha256WithRSAEncryption
        Issuer: C=xx, ST=x, O=x, OU=x, CN=x
        Validity
            Not Before: Apr 12 12:51:59 2018 GMT
            Not After : Apr 12 12:51:59 2019 GMT
        Subject: C=CH, ST=VD, L=Lausanne, O=EPFL, OU=LCA1, CN=iccluster032.iccluster.epfl.ch
        Subject Public Key Info:
            Public Key Algorithm: rsaEncryption
                Public-Key: (2048 bit)
                Modulus:
                    00:b5:7b:57:32:f2:02:f0:a4:2b:44:62:26:35:25:
                    79:bd:a2:60:f3:74:c2:83:3f:8d:cb:53:66:e5:02:
                    31:bf:e5:8b:86:55:1e:36:f9:ac:ad:af:a2:38:92:
                    8d:84:75:c0:c7:3a:5f:29:23:f5:8a:b7:fd:10:b0:
                    d7:39:91:6f:da:ca:c7:ad:8e:4f:f9:dc:eb:c9:4e:
                    64:0b:39:7f:47:8b:ff:0e:02:79:cd:00:58:4b:e8:
                    a0:61:31:28:42:83:a8:60:d7:8d:19:6a:45:3f:20:
                    02:ae:de:e7:57:66:8a:8b:15:16:cd:37:d5:30:36:
                    db:32:eb:2d:b3:2a:b7:b6:de:71:ac:03:f0:8d:e8:
                    d6:f1:a0:e5:7b:07:0c:01:8d:b7:53:33:3f:c9:45:
                    09:b9:f2:16:61:cb:5b:72:82:e5:b0:d4:81:7e:0d:
                    4e:5c:52:35:c0:f9:19:72:1c:67:74:7e:4a:97:5e:
                    68:24:c6:55:d5:09:f2:25:63:fe:1c:9e:4b:c9:f2:
                    45:04:ba:67:15:19:5d:17:28:96:cd:1b:3a:a8:04:
                    98:fd:5a:d2:05:0a:df:ea:b3:46:d9:72:f6:1f:5f:
                    ee:db:a8:d7:6c:dc:13:a7:43:21:3d:9d:35:1f:ea:
                    e7:5a:15:c7:63:2a:8b:70:9e:94:c5:62:c6:31:25:
                    5c:39
                Exponent: 65537 (0x10001)
        X509v3 extensions:
            X509v3 Basic Constraints: 
                CA:FALSE
            X509v3 Subject Alternative Name: 
                IP Address:10.90.38.8, DNS:iccluster032.iccluster.epfl.ch
            X509v3 Subject Key Identifier: 
                B2:19:8A:46:B3:44:E9:C8:94:54:64:24:E7:FA:FA:AB:5E:74:56:91
    Signature Algorithm: sha256WithRSAEncryption
         8d:ca:16:81:d2:1b:e1:19:83:52:bf:0b:9e:e7:41:b4:fe:dd:
         92:d3:a3:93:89:21:a0:7b:91:9d:67:85:4d:63:9d:0a:fa:10:
         af:49:41:87:a1:9d:77:01:50:7d:4c:2e:91:78:00:69:8d:5c:
         67:f1:54:59:3b:37:2e:09:02:66:66:31:ad:6c:f5:71:05:1a:
         fa:55:c7:d3:fc:f3:3d:8b:92:7d:ad:0d:2e:17:79:c0:fc:2a:
         e0:90:d1:85:d8:e2:21:32:ba:d7:7b:00:9d:0d:3b:90:ad:fb:
         ac:d9:48:f0:8b:2f:9e:60:4b:7b:3b:c5:59:c7:83:b8:0f:19:
         cd:26:4b:ce:a1:72:30:3c:85:7c:7c:ee:e4:d2:b0:82:79:c9:
         f1:41:4d:07:18:9f:bf:82:c2:fb:06:30:3c:87:4b:39:da:f6:
         73:d0:ec:c9:1d:ad:49:63:cf:6e:bb:ac:79:31:9e:90:0e:cc:
         48:d9:88:9c:ab:75:ab:38:a9:c4:a1:93:48:4d:11:52:9d:5d:
         3c:9f:99:51:00:8f:c6:2a:74:ec:fa:cf:47:e1:38:9e:14:85:
         09:25:0f:1e:66:95:0f:95:cc:53:8a:91:95:a4:6e:d2:a0:4b:
         0a:17:14:a5:a2:0c:ff:b7:18:21:95:53:23:c9:6a:ed:26:b7:
         2e:27:ea:ea
-----BEGIN CERTIFICATE-----
MIIDkTCCAnmgAwIBAgIJAJOc1QAAP6vAMA0GCSqGSIb3DQEBCwUAMD0xCzAJBgNV
BAYTAnh4MQowCAYDVQQIDAF4MQowCAYDVQQKDAF4MQowCAYDVQQLDAF4MQowCAYD
VQQDDAF4MB4XDTE4MDQxMjEyNTE1OVoXDTE5MDQxMjEyNTE1OVowdDELMAkGA1UE
BhMCQ0gxCzAJBgNVBAgTAlZEMREwDwYDVQQHEwhMYXVzYW5uZTENMAsGA1UEChME
RVBGTDENMAsGA1UECxMETENBMTEnMCUGA1UEAxMeaWNjbHVzdGVyMDMyLmljY2x1
c3Rlci5lcGZsLmNoMIIBIjANBgkqhkiG9w0BAQEFAAOCAQ8AMIIBCgKCAQEAtXtX
MvIC8KQrRGImNSV5vaJg83TCgz+Ny1Nm5QIxv+WLhlUeNvmsra+iOJKNhHXAxzpf
KSP1irf9ELDXOZFv2srHrY5P+dzryU5kCzl/R4v/DgJ5zQBYS+igYTEoQoOoYNeN
GWpFPyACrt7nV2aKixUWzTfVMDbbMustsyq3tt5xrAPwjejW8aDlewcMAY23UzM/
yUUJufIWYctbcoLlsNSBfg1OXFI1wPkZchxndH5Kl15oJMZV1QnyJWP+HJ5LyfJF
BLpnFRldFyiWzRs6qASY/VrSBQrf6rNG2XL2H1/u26jXbNwTp0MhPZ01H+rnWhXH
YyqLcJ6UxWLGMSVcOQIDAQABo10wWzAJBgNVHRMEAjAAMC8GA1UdEQQoMCaHBApa
JgiCHmljY2x1c3RlcjAzMi5pY2NsdXN0ZXIuZXBmbC5jaDAdBgNVHQ4EFgQUshmK
RrNE6ciUVGQk5/r6q150VpEwDQYJKoZIhvcNAQELBQADggEBAI3KFoHSG+EZg1K/
C57nQbT+3ZLTo5OJIaB7kZ1nhU1jnQr6EK9JQYehnXcBUH1MLpF4AGmNXGfxVFk7
Ny4JAmZmMa1s9XEFGvpVx9P88z2Lkn2tDS4XecD8KuCQ0YXY4iEyutd7AJ0NO5Ct
+6zZSPCLL55gS3s7xVnHg7gPGc0mS86hcjA8hXx87uTSsIJ5yfFBTQcYn7+CwvsG
MDyHSzna9nPQ7MkdrUljz267rHkxnpAOzEjZiJyrdas4qcShk0hNEVKdXTyfmVEA
j8YqdOz6z0fhOJ4UhQklDx5mlQ+VzFOKkZWkbtKgSwoXFKWiDP+3GCGVUyPJau0m
ty4n6uo=
-----END CERTIFICATE-----
