Certificate:
    Data:
        Version: 3 (0x2)
        Serial Number: 16825504056027015274 (0xe98032cb2a62686a)
    Signature Algorithm: sha256WithRSAEncryption
        Issuer: C=CH, ST=Vaud, O=EPFL, OU=MedCo, CN=Node 2
        Validity
            Not Before: Apr 10 10:32:41 2018 GMT
            Not After : Apr 10 10:32:41 2019 GMT
        Subject: C=CH, ST=VD, L=Lausanne, O=EPFL, OU=LCA1, CN=iccluster032.iccluster.epfl.ch
        Subject Public Key Info:
            Public Key Algorithm: rsaEncryption
                Public-Key: (2048 bit)
                Modulus:
                    00:ab:a4:5c:51:1b:df:ea:9f:a4:f3:f8:17:5a:0a:
                    3f:df:51:dd:6a:6a:78:f5:89:03:fd:76:70:98:7d:
                    9a:00:5e:be:89:24:dd:6a:d9:2b:1c:9d:31:fd:ca:
                    3d:84:92:64:e4:30:20:b0:d5:47:d8:4c:45:f0:ce:
                    ef:b2:ce:d3:02:c2:51:b7:43:cb:34:cb:f9:2f:db:
                    c2:75:b6:cc:7a:23:30:1d:11:82:75:60:0f:60:55:
                    7c:5c:e9:30:3e:9b:c8:1b:07:a3:aa:a2:52:c9:16:
                    df:6a:ab:2a:7d:9e:13:b3:bc:69:8a:78:85:a3:2f:
                    c6:7e:4c:cc:98:2b:24:16:da:d1:70:2e:70:46:39:
                    e2:60:a9:2f:3e:6c:9f:b1:41:68:1b:dc:c4:a2:65:
                    08:37:22:0c:19:41:6c:fd:a5:43:4c:41:52:c1:6e:
                    fc:00:eb:0c:7b:ba:63:ed:2b:5a:c2:2d:ff:de:95:
                    66:83:89:e2:0e:b3:e0:35:d9:b9:25:40:91:00:41:
                    32:59:f0:4d:ec:95:d7:18:71:dc:59:b5:b0:d1:aa:
                    bb:91:8a:42:1e:5c:45:25:90:12:2b:cb:ab:d4:6e:
                    f6:5d:3a:a4:a0:3d:53:b2:ce:61:d0:bb:c9:1e:49:
                    02:8d:8c:d7:89:97:6d:1f:42:75:aa:ab:95:a9:eb:
                    e8:91
                Exponent: 65537 (0x10001)
        X509v3 extensions:
            X509v3 Basic Constraints: 
                CA:FALSE
            X509v3 Subject Alternative Name: 
                IP Address:10.90.38.8, DNS:iccluster032.iccluster.epfl.ch
            X509v3 Subject Key Identifier: 
                5B:80:78:27:4A:EE:FF:85:BE:EE:60:76:FF:51:9F:31:48:48:84:CF
    Signature Algorithm: sha256WithRSAEncryption
         12:37:5e:48:e7:75:59:1d:b7:6c:cf:40:ec:5f:3a:ec:db:ed:
         3c:fb:65:f4:fc:9b:f8:80:3d:2a:45:e5:9d:2d:1b:79:be:5d:
         f6:e8:e4:04:6d:b6:d1:33:7d:4e:6f:54:43:e5:c0:40:72:39:
         03:77:49:9d:4b:57:89:37:9d:0b:8c:df:8b:ed:4b:ba:8c:9c:
         a2:31:18:10:77:6c:67:cd:42:dc:fc:d0:bd:65:b4:02:27:c2:
         1c:e4:02:e0:fc:a1:bc:14:79:f4:af:b6:d5:95:40:4f:4e:18:
         c9:c9:89:f8:c0:f3:63:c8:7e:30:04:4d:7c:37:86:27:7f:61:
         47:25:b7:23:5e:ec:ab:1b:b4:19:39:01:71:e2:91:ee:69:3f:
         8d:ad:be:66:63:28:f9:c1:be:4a:aa:38:35:a4:08:58:22:40:
         f9:a2:65:17:6c:eb:cd:9d:f8:ab:68:e8:89:b9:19:75:31:9f:
         75:a6:40:3b:c2:24:a8:91:25:ee:46:97:0e:53:cd:dd:ac:d8:
         78:eb:ec:03:b6:e9:31:8b:36:8d:74:97:44:ee:bf:85:aa:d8:
         b1:b4:86:a5:db:58:c5:2a:5c:ba:d2:e9:ae:24:05:21:c8:ba:
         09:c0:7e:fc:49:4b:c8:ec:5e:8e:a1:3d:e6:3c:0f:b9:42:75:
         03:d9:bd:71
-----BEGIN CERTIFICATE-----
MIIDoDCCAoigAwIBAgIJAOmAMssqYmhqMA0GCSqGSIb3DQEBCwUAMEwxCzAJBgNV
BAYTAkNIMQ0wCwYDVQQIDARWYXVkMQ0wCwYDVQQKDARFUEZMMQ4wDAYDVQQLDAVN
ZWRDbzEPMA0GA1UEAwwGTm9kZSAyMB4XDTE4MDQxMDEwMzI0MVoXDTE5MDQxMDEw
MzI0MVowdDELMAkGA1UEBhMCQ0gxCzAJBgNVBAgTAlZEMREwDwYDVQQHEwhMYXVz
YW5uZTENMAsGA1UEChMERVBGTDENMAsGA1UECxMETENBMTEnMCUGA1UEAxMeaWNj
bHVzdGVyMDMyLmljY2x1c3Rlci5lcGZsLmNoMIIBIjANBgkqhkiG9w0BAQEFAAOC
AQ8AMIIBCgKCAQEAq6RcURvf6p+k8/gXWgo/31Hdamp49YkD/XZwmH2aAF6+iSTd
atkrHJ0x/co9hJJk5DAgsNVH2ExF8M7vss7TAsJRt0PLNMv5L9vCdbbMeiMwHRGC
dWAPYFV8XOkwPpvIGwejqqJSyRbfaqsqfZ4Ts7xpiniFoy/GfkzMmCskFtrRcC5w
RjniYKkvPmyfsUFoG9zEomUINyIMGUFs/aVDTEFSwW78AOsMe7pj7Stawi3/3pVm
g4niDrPgNdm5JUCRAEEyWfBN7JXXGHHcWbWw0aq7kYpCHlxFJZASK8ur1G72XTqk
oD1Tss5h0LvJHkkCjYzXiZdtH0J1qquVqevokQIDAQABo10wWzAJBgNVHRMEAjAA
MC8GA1UdEQQoMCaHBApaJgiCHmljY2x1c3RlcjAzMi5pY2NsdXN0ZXIuZXBmbC5j
aDAdBgNVHQ4EFgQUW4B4J0ru/4W+7mB2/1GfMUhIhM8wDQYJKoZIhvcNAQELBQAD
ggEBABI3XkjndVkdt2zPQOxfOuzb7Tz7ZfT8m/iAPSpF5Z0tG3m+Xfbo5ARtttEz
fU5vVEPlwEByOQN3SZ1LV4k3nQuM34vtS7qMnKIxGBB3bGfNQtz80L1ltAInwhzk
AuD8obwUefSvttWVQE9OGMnJifjA82PIfjAETXw3hid/YUcltyNe7KsbtBk5AXHi
ke5pP42tvmZjKPnBvkqqODWkCFgiQPmiZRds682d+Kto6Im5GXUxn3WmQDvCJKiR
Je5Glw5Tzd2s2Hjr7AO26TGLNo10l0Tuv4Wq2LG0hqXbWMUqXLrS6a4kBSHIugnA
fvxJS8jsXo6hPeY8D7lCdQPZvXE=
-----END CERTIFICATE-----
