Certificate:
    Data:
        Version: 3 (0x2)
        Serial Number:
            90:5f:6f:a5:e3:cc:f2:b0
    Signature Algorithm: sha256WithRSAEncryption
        Issuer: C=CH, ST=VD, O=EPFL, OU=LCA1, CN=MedCo
        Validity
            Not Before: Jun 28 11:27:48 2018 GMT
            Not After : Jun 28 11:27:48 2019 GMT
        Subject: C=CH, ST=VD, L=Lausanne, O=EPFL, OU=LCA1, CN=iccluster032.iccluster.epfl.ch
        Subject Public Key Info:
            Public Key Algorithm: rsaEncryption
                Public-Key: (2048 bit)
                Modulus:
                    00:ca:20:97:56:a2:85:6c:2d:7a:32:a1:41:74:a5:
                    78:10:d0:1c:bc:e1:41:17:6b:89:82:23:a7:c6:cf:
                    4e:76:0b:91:97:06:4b:c3:d5:0e:03:4e:c1:e6:04:
                    a6:fc:31:99:00:f0:4d:1a:83:90:09:2f:b6:c6:dc:
                    34:25:31:92:cf:63:09:47:f4:81:3b:9b:b7:4b:5f:
                    dc:c9:fb:66:20:ea:97:67:4d:fd:65:6c:ee:fb:b6:
                    da:bd:2e:3a:3c:d3:d6:ed:55:6e:ec:1e:9f:83:b8:
                    92:2b:ec:b5:06:53:2e:68:b5:b9:e3:98:7d:f1:ab:
                    60:82:41:86:40:90:de:cd:55:6a:fd:21:b7:bc:4a:
                    87:9f:0f:7a:dd:25:e0:9d:07:b4:08:8d:c2:e4:65:
                    f0:e5:0d:06:43:d0:b2:2a:02:9d:11:ca:ce:0e:d3:
                    f0:fe:7d:24:94:d2:38:c3:e8:36:98:32:ed:05:f5:
                    7b:e4:72:3a:28:67:30:19:63:81:db:22:7a:73:14:
                    e9:a3:82:9c:f1:0c:6e:69:f5:13:46:62:f6:61:63:
                    f8:f9:f9:83:71:85:e1:b8:63:a2:cd:86:5c:56:fa:
                    4a:3d:01:63:b9:f8:62:16:e2:29:8f:74:e3:af:d9:
                    8c:3c:ba:ee:32:d8:d1:51:6a:08:0a:b4:d6:4b:18:
                    24:b9
                Exponent: 65537 (0x10001)
        X509v3 extensions:
            X509v3 Basic Constraints: 
                CA:FALSE
            X509v3 Subject Alternative Name: 
                IP Address:10.90.38.8, DNS:iccluster032.iccluster.epfl.ch
            X509v3 Subject Key Identifier: 
                AB:58:AB:10:71:E3:90:D5:2E:DD:D4:74:A0:9F:E1:2F:F9:C8:C0:86
    Signature Algorithm: sha256WithRSAEncryption
         a1:63:2c:55:9d:db:59:8b:b9:97:d2:b1:95:3a:61:1f:1a:89:
         3d:f6:a6:b0:a6:42:16:d1:94:61:82:03:8e:36:b7:5e:ba:ae:
         f4:af:42:1c:31:fe:7d:bd:5b:0a:8a:38:9f:09:f1:6c:53:76:
         55:bc:56:ab:e0:b6:87:c2:c5:f4:f2:9b:7d:46:91:bb:7d:a9:
         d7:ea:d4:96:29:bb:11:48:f3:91:03:bc:0c:c1:57:6d:7e:06:
         10:d4:20:26:8b:7f:64:04:8c:22:6a:f0:cd:45:d0:03:db:94:
         67:57:62:97:ec:7e:e6:6e:29:23:46:48:24:6b:eb:dd:fd:8b:
         74:19:16:ee:94:d5:7e:46:a9:88:32:0a:55:24:bb:9d:d8:e8:
         c6:1a:ab:de:65:01:3a:46:23:38:17:7b:f1:23:98:ea:88:81:
         97:54:1e:59:90:e6:5c:56:81:b5:1a:85:c1:a9:fe:05:c8:a0:
         10:58:ea:5c:aa:c5:ba:8c:e3:74:b4:9e:76:f2:38:f8:5a:ea:
         8d:91:2b:ca:23:14:e3:d3:7a:3b:2c:6a:32:8e:d6:26:9a:4e:
         f2:ba:27:7f:12:f9:16:71:f8:88:82:77:8b:aa:fa:ed:f5:b6:
         04:e6:db:22:6d:4b:72:e0:f2:63:b7:18:d5:d4:63:d9:00:83:
         a4:6d:a7:36
-----BEGIN CERTIFICATE-----
MIIDnDCCAoSgAwIBAgIJAJBfb6XjzPKwMA0GCSqGSIb3DQEBCwUAMEgxCzAJBgNV
BAYTAkNIMQswCQYDVQQIDAJWRDENMAsGA1UECgwERVBGTDENMAsGA1UECwwETENB
MTEOMAwGA1UEAwwFTWVkQ28wHhcNMTgwNjI4MTEyNzQ4WhcNMTkwNjI4MTEyNzQ4
WjB0MQswCQYDVQQGEwJDSDELMAkGA1UECBMCVkQxETAPBgNVBAcTCExhdXNhbm5l
MQ0wCwYDVQQKEwRFUEZMMQ0wCwYDVQQLEwRMQ0ExMScwJQYDVQQDEx5pY2NsdXN0
ZXIwMzIuaWNjbHVzdGVyLmVwZmwuY2gwggEiMA0GCSqGSIb3DQEBAQUAA4IBDwAw
ggEKAoIBAQDKIJdWooVsLXoyoUF0pXgQ0By84UEXa4mCI6fGz052C5GXBkvD1Q4D
TsHmBKb8MZkA8E0ag5AJL7bG3DQlMZLPYwlH9IE7m7dLX9zJ+2Yg6pdnTf1lbO77
ttq9Ljo809btVW7sHp+DuJIr7LUGUy5otbnjmH3xq2CCQYZAkN7NVWr9Ibe8Soef
D3rdJeCdB7QIjcLkZfDlDQZD0LIqAp0Rys4O0/D+fSSU0jjD6DaYMu0F9Xvkcjoo
ZzAZY4HbInpzFOmjgpzxDG5p9RNGYvZhY/j5+YNxheG4Y6LNhlxW+ko9AWO5+GIW
4imPdOOv2Yw8uu4y2NFRaggKtNZLGCS5AgMBAAGjXTBbMAkGA1UdEwQCMAAwLwYD
VR0RBCgwJocEClomCIIeaWNjbHVzdGVyMDMyLmljY2x1c3Rlci5lcGZsLmNoMB0G
A1UdDgQWBBSrWKsQceOQ1S7d1HSgn+Ev+cjAhjANBgkqhkiG9w0BAQsFAAOCAQEA
oWMsVZ3bWYu5l9KxlTphHxqJPfamsKZCFtGUYYIDjja3Xrqu9K9CHDH+fb1bCoo4
nwnxbFN2VbxWq+C2h8LF9PKbfUaRu32p1+rUlim7EUjzkQO8DMFXbX4GENQgJot/
ZASMImrwzUXQA9uUZ1dil+x+5m4pI0ZIJGvr3f2LdBkW7pTVfkapiDIKVSS7ndjo
xhqr3mUBOkYjOBd78SOY6oiBl1QeWZDmXFaBtRqFwan+BcigEFjqXKrFuozjdLSe
dvI4+FrqjZEryiMU49N6OyxqMo7WJppO8ronfxL5FnH4iIJ3i6r67fW2BObbIm1L
cuDyY7cY1dRj2QCDpG2nNg==
-----END CERTIFICATE-----
