Certificate:
    Data:
        Version: 3 (0x2)
        Serial Number:
            90:5f:6f:a5:e3:cc:f2:af
    Signature Algorithm: sha256WithRSAEncryption
        Issuer: C=CH, ST=VD, O=EPFL, OU=LCA1, CN=MedCo
        Validity
            Not Before: Jun 28 11:27:41 2018 GMT
            Not After : Jun 27 11:27:41 2021 GMT
        Subject: C=CH, ST=VD, O=EPFL, OU=LCA1, CN=MedCo
        Subject Public Key Info:
            Public Key Algorithm: rsaEncryption
                Public-Key: (2048 bit)
                Modulus:
                    00:f1:f7:09:25:a0:2a:c6:42:4a:e0:46:a5:1f:94:
                    87:8f:54:e8:f0:77:b2:05:eb:eb:b8:9c:21:3f:3a:
                    ea:5d:b7:b8:c0:b0:7d:71:18:a7:c4:41:7d:1c:bf:
                    b8:7d:e7:a5:75:84:14:72:9d:86:4e:b7:c4:ec:c4:
                    dc:00:23:0f:7a:c4:0f:ae:4d:bf:51:cb:38:82:eb:
                    19:d1:2c:40:9e:76:c3:f7:02:0a:e8:e3:c6:aa:50:
                    bb:8a:24:46:45:cc:df:04:c7:56:52:25:e3:ee:c7:
                    40:0b:48:82:1d:2f:29:10:a7:ff:45:9b:26:89:63:
                    9e:a2:c8:63:8f:7a:f3:5a:55:3b:ed:c2:78:e2:04:
                    d4:e4:44:64:b8:b3:3a:dd:fe:b1:d7:85:d3:c5:b2:
                    66:2d:81:48:7f:fa:1b:fa:e3:b7:d4:42:76:4a:f0:
                    b7:a5:2d:ef:c6:3f:48:94:cd:e4:2c:2c:ce:18:a3:
                    5f:91:26:fa:3a:8f:31:40:30:79:c0:8e:66:c8:16:
                    41:99:3e:e5:54:72:72:b3:4f:d9:ce:04:1e:eb:30:
                    e0:0f:75:ae:81:e2:f3:c7:cc:1c:ed:20:b3:ac:8d:
                    6e:0b:0d:2a:4c:4c:ce:6e:cc:23:f6:db:87:e1:9b:
                    6e:53:01:b9:c9:fc:d6:fd:29:18:b3:fc:be:b5:62:
                    9f:0f
                Exponent: 65537 (0x10001)
        X509v3 extensions:
            X509v3 Subject Key Identifier: 
                22:49:C7:D7:86:D4:EF:2E:90:8D:CF:61:5B:95:42:75:FA:92:A5:03
            X509v3 Authority Key Identifier: 
                keyid:22:49:C7:D7:86:D4:EF:2E:90:8D:CF:61:5B:95:42:75:FA:92:A5:03

            X509v3 Basic Constraints: 
                CA:TRUE
    Signature Algorithm: sha256WithRSAEncryption
         c9:19:53:73:fa:48:65:8e:ad:d0:14:16:cd:b6:b3:8b:98:a0:
         9a:21:9d:dd:79:d3:cc:45:65:c7:cf:75:1f:1a:04:ca:5f:a4:
         ff:67:23:95:bd:00:4d:2d:90:36:7b:61:e1:9a:c6:1c:5b:f7:
         f2:52:49:d6:32:fe:f0:5a:55:00:5a:ab:c8:47:a5:07:e6:aa:
         f3:5e:ba:b2:cf:48:86:b6:be:bd:4e:63:c6:7b:de:1b:eb:da:
         18:75:0b:a9:e6:bf:ca:13:af:80:21:47:6f:14:a6:3d:93:0f:
         08:83:98:f1:81:a1:b8:d5:4c:9b:33:37:99:2e:4a:34:5d:f7:
         41:cd:fb:b7:d1:92:37:53:15:db:58:31:3e:a8:7c:b1:da:87:
         a5:47:cd:18:78:9a:a3:0f:4e:0c:a5:6e:5d:0d:e2:b7:5a:4d:
         17:7e:3a:ac:4e:af:39:3e:81:80:b8:f7:58:4e:60:b1:3d:97:
         06:22:dc:6c:85:07:6b:13:93:14:30:4b:a9:e1:17:4a:bf:fa:
         71:c1:68:09:2d:f3:00:bd:91:31:76:2d:a3:f7:91:62:27:dc:
         9b:64:a6:57:04:f3:92:49:25:94:70:32:4e:63:04:c3:91:ae:
         65:cf:d5:b0:b3:8c:65:27:0d:4d:2e:e9:13:2d:a0:f9:b6:bc:
         d0:f0:8e:57
-----BEGIN CERTIFICATE-----
MIIDYzCCAkugAwIBAgIJAJBfb6XjzPKvMA0GCSqGSIb3DQEBCwUAMEgxCzAJBgNV
BAYTAkNIMQswCQYDVQQIDAJWRDENMAsGA1UECgwERVBGTDENMAsGA1UECwwETENB
MTEOMAwGA1UEAwwFTWVkQ28wHhcNMTgwNjI4MTEyNzQxWhcNMjEwNjI3MTEyNzQx
WjBIMQswCQYDVQQGEwJDSDELMAkGA1UECAwCVkQxDTALBgNVBAoMBEVQRkwxDTAL
BgNVBAsMBExDQTExDjAMBgNVBAMMBU1lZENvMIIBIjANBgkqhkiG9w0BAQEFAAOC
AQ8AMIIBCgKCAQEA8fcJJaAqxkJK4EalH5SHj1To8HeyBevruJwhPzrqXbe4wLB9
cRinxEF9HL+4feeldYQUcp2GTrfE7MTcACMPesQPrk2/Ucs4gusZ0SxAnnbD9wIK
6OPGqlC7iiRGRczfBMdWUiXj7sdAC0iCHS8pEKf/RZsmiWOeoshjj3rzWlU77cJ4
4gTU5ERkuLM63f6x14XTxbJmLYFIf/ob+uO31EJ2SvC3pS3vxj9IlM3kLCzOGKNf
kSb6Oo8xQDB5wI5myBZBmT7lVHJys0/ZzgQe6zDgD3WugeLzx8wc7SCzrI1uCw0q
TEzObswj9tuH4ZtuUwG5yfzW/SkYs/y+tWKfDwIDAQABo1AwTjAdBgNVHQ4EFgQU
IknH14bU7y6Qjc9hW5VCdfqSpQMwHwYDVR0jBBgwFoAUIknH14bU7y6Qjc9hW5VC
dfqSpQMwDAYDVR0TBAUwAwEB/zANBgkqhkiG9w0BAQsFAAOCAQEAyRlTc/pIZY6t
0BQWzbazi5igmiGd3XnTzEVlx891HxoEyl+k/2cjlb0ATS2QNnth4ZrGHFv38lJJ
1jL+8FpVAFqryEelB+aq8166ss9Ihra+vU5jxnveG+vaGHULqea/yhOvgCFHbxSm
PZMPCIOY8YGhuNVMmzM3mS5KNF33Qc37t9GSN1MV21gxPqh8sdqHpUfNGHiaow9O
DKVuXQ3it1pNF346rE6vOT6BgLj3WE5gsT2XBiLcbIUHaxOTFDBLqeEXSr/6ccFo
CS3zAL2RMXYto/eRYifcm2SmVwTzkkkllHAyTmMEw5GuZc/VsLOMZScNTS7pEy2g
+ba80PCOVw==
-----END CERTIFICATE-----
