Certificate:
    Data:
        Version: 3 (0x2)
        Serial Number: 9253486240013161137 (0x806afcb54df312b1)
    Signature Algorithm: sha256WithRSAEncryption
        Issuer: C=xx, ST=x, O=x, OU=x, CN=x
        Validity
            Not Before: May  3 09:13:28 2018 GMT
            Not After : May  3 09:13:28 2019 GMT
        Subject: C=CH, ST=VD, L=Lausanne, O=EPFL, OU=LCA1, CN=iccluster072.iccluster.epfl.ch
        Subject Public Key Info:
            Public Key Algorithm: rsaEncryption
                Public-Key: (2048 bit)
                Modulus:
                    00:84:00:63:3c:10:0a:54:f9:c2:6b:3b:e4:ed:4f:
                    d5:22:a7:cf:98:21:f5:a9:32:21:09:2e:79:e5:8b:
                    10:89:99:1f:cd:08:b7:f4:91:44:55:c8:68:83:33:
                    cc:a9:90:b9:82:79:24:3b:73:b2:5e:e3:1b:ae:07:
                    43:3b:42:2a:78:46:d3:6a:04:f5:17:df:30:5e:36:
                    64:ba:c7:ac:30:0b:e7:a0:62:de:f0:1c:c2:fb:e3:
                    21:ab:c6:78:25:8f:9d:e4:0b:71:4a:e3:59:b8:67:
                    22:89:3d:43:77:de:bc:c9:55:ba:e9:b3:1b:94:c4:
                    56:7b:81:cf:fd:13:93:fc:6d:03:c4:32:d9:9e:4b:
                    ca:9b:92:4f:c7:d9:ba:58:89:ed:6e:2d:b0:49:e7:
                    19:8d:b4:ea:e5:7d:57:54:88:9e:52:e3:68:b6:20:
                    2a:cd:54:b5:86:e8:49:c9:11:2c:98:c6:77:36:20:
                    67:33:40:5d:80:77:70:ad:74:36:c8:67:e1:90:6c:
                    76:d1:39:75:d5:10:77:3f:c4:76:6b:c7:fc:1c:ed:
                    7d:97:1b:15:c5:bf:54:87:e1:9f:55:da:39:e8:4c:
                    aa:e1:97:e7:2d:8b:25:de:82:e9:13:48:41:b4:4c:
                    37:66:9a:8a:a5:a6:f3:8a:31:4d:1b:08:f6:a7:9d:
                    da:8f
                Exponent: 65537 (0x10001)
        X509v3 extensions:
            X509v3 Basic Constraints: 
                CA:FALSE
            X509v3 Subject Alternative Name: 
                IP Address:10.90.39.23, DNS:iccluster072.iccluster.epfl.ch
            X509v3 Subject Key Identifier: 
                63:04:EE:20:11:0B:C5:69:00:78:93:79:C0:BF:D4:43:61:DE:57:C8
    Signature Algorithm: sha256WithRSAEncryption
         35:bf:a6:3b:94:a5:7e:19:4e:70:18:a3:67:2a:b9:84:c4:ad:
         90:74:91:4a:20:8c:5d:c7:fd:ea:e1:86:c0:44:e0:ce:51:9c:
         88:60:47:a0:73:2e:6f:70:81:a3:28:d0:b3:47:14:7b:8c:b9:
         9a:5d:f0:7a:07:a8:aa:e2:e7:94:91:7b:0c:b2:05:65:cc:24:
         db:80:26:a5:e9:15:ce:ac:75:0e:23:17:92:20:83:cb:b7:2e:
         08:b4:76:54:2f:6b:12:97:42:48:35:50:ac:b1:2c:d9:d1:0d:
         66:68:82:f3:e8:a4:98:6f:ad:58:a3:00:2d:f7:7f:d0:25:c8:
         2f:61:c9:22:98:00:67:40:15:43:cf:9c:0a:ee:dc:d5:3c:7d:
         49:84:bb:da:97:83:3d:3e:e7:06:5b:df:e5:3d:e3:64:05:3d:
         c4:a0:e1:0e:25:49:a9:89:78:e1:58:33:95:f9:da:19:2b:a4:
         05:c2:a2:9c:db:61:2d:6c:b9:97:e1:6e:0c:70:73:88:d6:85:
         49:05:5e:ca:3e:22:45:1d:ca:78:73:a4:a9:ad:d8:8d:93:52:
         f6:41:29:65:2a:33:6b:d5:a4:32:7e:41:07:c2:83:eb:8e:3e:
         ed:79:b5:d3:3c:7d:d1:65:58:06:c7:ff:a8:6b:7e:2c:e5:37:
         39:ba:41:91
-----BEGIN CERTIFICATE-----
MIIDkTCCAnmgAwIBAgIJAIBq/LVN8xKxMA0GCSqGSIb3DQEBCwUAMD0xCzAJBgNV
BAYTAnh4MQowCAYDVQQIDAF4MQowCAYDVQQKDAF4MQowCAYDVQQLDAF4MQowCAYD
VQQDDAF4MB4XDTE4MDUwMzA5MTMyOFoXDTE5MDUwMzA5MTMyOFowdDELMAkGA1UE
BhMCQ0gxCzAJBgNVBAgTAlZEMREwDwYDVQQHEwhMYXVzYW5uZTENMAsGA1UEChME
RVBGTDENMAsGA1UECxMETENBMTEnMCUGA1UEAxMeaWNjbHVzdGVyMDcyLmljY2x1
c3Rlci5lcGZsLmNoMIIBIjANBgkqhkiG9w0BAQEFAAOCAQ8AMIIBCgKCAQEAhABj
PBAKVPnCazvk7U/VIqfPmCH1qTIhCS555YsQiZkfzQi39JFEVchogzPMqZC5gnkk
O3OyXuMbrgdDO0IqeEbTagT1F98wXjZkusesMAvnoGLe8BzC++Mhq8Z4JY+d5Atx
SuNZuGciiT1Dd968yVW66bMblMRWe4HP/ROT/G0DxDLZnkvKm5JPx9m6WIntbi2w
SecZjbTq5X1XVIieUuNotiAqzVS1huhJyREsmMZ3NiBnM0BdgHdwrXQ2yGfhkGx2
0Tl11RB3P8R2a8f8HO19lxsVxb9Uh+GfVdo56Eyq4ZfnLYsl3oLpE0hBtEw3ZpqK
pabzijFNGwj2p53ajwIDAQABo10wWzAJBgNVHRMEAjAAMC8GA1UdEQQoMCaHBApa
JxeCHmljY2x1c3RlcjA3Mi5pY2NsdXN0ZXIuZXBmbC5jaDAdBgNVHQ4EFgQUYwTu
IBELxWkAeJN5wL/UQ2HeV8gwDQYJKoZIhvcNAQELBQADggEBADW/pjuUpX4ZTnAY
o2cquYTErZB0kUogjF3H/erhhsBE4M5RnIhgR6BzLm9wgaMo0LNHFHuMuZpd8HoH
qKri55SRewyyBWXMJNuAJqXpFc6sdQ4jF5Igg8u3Lgi0dlQvaxKXQkg1UKyxLNnR
DWZogvPopJhvrVijAC33f9AlyC9hySKYAGdAFUPPnAru3NU8fUmEu9qXgz0+5wZb
3+U942QFPcSg4Q4lSamJeOFYM5X52hkrpAXCopzbYS1suZfhbgxwc4jWhUkFXso+
IkUdynhzpKmt2I2TUvZBKWUqM2vVpDJ+QQfCg+uOPu15tdM8fdFlWAbH/6hrfizl
Nzm6QZE=
-----END CERTIFICATE-----
