Certificate:
    Data:
        Version: 3 (0x2)
        Serial Number: 9253486240013161141 (0x806afcb54df312b5)
    Signature Algorithm: sha256WithRSAEncryption
        Issuer: C=xx, ST=x, O=x, OU=x, CN=x
        Validity
            Not Before: May  3 09:13:56 2018 GMT
            Not After : May  3 09:13:56 2019 GMT
        Subject: C=CH, ST=VD, L=Lausanne, O=EPFL, OU=LCA1, CN=iccluster103.iccluster.epfl.ch
        Subject Public Key Info:
            Public Key Algorithm: rsaEncryption
                Public-Key: (2048 bit)
                Modulus:
                    00:80:fa:8e:d4:5c:41:9a:af:26:ac:27:9d:ea:27:
                    e4:f7:f2:dd:05:9c:6a:3e:11:9d:b8:99:96:24:82:
                    0b:2c:cf:6e:b7:0b:69:0f:3a:fe:26:a4:39:4b:eb:
                    56:5f:9d:6b:a4:31:58:f4:39:e5:6d:b4:84:3d:89:
                    51:f6:a7:b2:e7:14:16:86:ae:f1:25:eb:12:ad:d9:
                    65:29:05:d3:3d:b7:e9:3f:33:a0:3b:57:57:f0:f3:
                    b3:31:03:1c:74:23:c4:9d:7f:14:d7:86:76:be:05:
                    17:12:ad:47:3c:fe:d9:7e:93:2b:dc:f7:44:93:ec:
                    b0:e3:6d:11:8f:d7:34:b6:a3:eb:66:35:bb:6b:a2:
                    ce:52:69:4a:e8:d0:6a:25:8f:8f:6e:fa:aa:c9:a8:
                    09:3e:7a:7e:6d:38:61:29:dc:35:19:6f:49:5d:a7:
                    c8:8c:3e:28:e1:96:fb:28:1e:34:3c:fa:07:59:61:
                    bf:44:3d:df:8d:6e:99:1a:01:f7:cf:0e:f7:cf:81:
                    70:0f:24:8d:a9:51:d8:f8:6b:6b:89:1a:ee:61:6e:
                    6e:5e:75:ff:9e:c1:17:a9:1b:75:9b:6a:66:e8:47:
                    a5:ca:b7:e5:ed:0b:cc:66:ed:82:3f:f9:97:65:01:
                    4c:d9:1f:0c:31:0a:ba:eb:c7:80:bf:09:02:db:f9:
                    aa:49
                Exponent: 65537 (0x10001)
        X509v3 extensions:
            X509v3 Basic Constraints: 
                CA:FALSE
            X509v3 Subject Alternative Name: 
                IP Address:10.90.36.33, DNS:iccluster103.iccluster.epfl.ch
            X509v3 Subject Key Identifier: 
                07:28:E2:AE:FF:20:B1:C9:9B:DE:DB:28:ED:56:5F:C2:17:40:46:D2
    Signature Algorithm: sha256WithRSAEncryption
         32:0e:45:1b:35:50:9d:61:ff:73:2a:0a:23:46:1e:d2:2b:24:
         f3:03:3a:c5:eb:7c:2c:ae:6a:97:ee:8e:04:04:a1:71:1a:b5:
         3d:21:c0:4b:e1:78:9c:b4:11:0e:e2:63:83:10:a6:4d:b1:0f:
         54:14:db:6a:a2:9a:7f:4f:44:8a:23:be:6b:b0:77:3d:68:71:
         5c:ab:ff:5f:6f:6e:08:d0:ad:84:53:f5:36:53:f6:f1:f8:a3:
         ac:24:91:22:6d:e6:09:c4:20:5c:05:d7:ce:63:f6:50:60:cb:
         8c:82:21:d4:fc:0d:8a:1b:79:bd:27:09:9b:52:7c:c4:16:8a:
         5f:2d:f3:88:2d:1e:b6:07:7c:cf:e6:d6:bd:ad:ad:2a:4b:ed:
         f6:e1:a6:09:e8:d2:2a:f6:e6:43:5f:f6:41:40:96:8b:06:55:
         0d:2b:d5:67:87:03:8c:10:aa:4e:f8:2d:a9:52:67:f0:6f:24:
         70:3f:20:96:d4:43:a4:73:33:5b:ee:90:f9:e0:eb:7d:3e:a1:
         77:1e:bf:fc:1f:67:e4:7b:81:fd:29:2c:4f:82:62:1b:4d:d8:
         96:42:5d:f0:ae:46:be:f8:42:75:0c:81:f9:d9:a0:20:db:de:
         10:ed:4e:ed:e1:35:d5:b9:47:18:31:a8:9a:28:42:70:ec:3d:
         97:ae:10:d7
-----BEGIN CERTIFICATE-----
MIIDkTCCAnmgAwIBAgIJAIBq/LVN8xK1MA0GCSqGSIb3DQEBCwUAMD0xCzAJBgNV
BAYTAnh4MQowCAYDVQQIDAF4MQowCAYDVQQKDAF4MQowCAYDVQQLDAF4MQowCAYD
VQQDDAF4MB4XDTE4MDUwMzA5MTM1NloXDTE5MDUwMzA5MTM1NlowdDELMAkGA1UE
BhMCQ0gxCzAJBgNVBAgTAlZEMREwDwYDVQQHEwhMYXVzYW5uZTENMAsGA1UEChME
RVBGTDENMAsGA1UECxMETENBMTEnMCUGA1UEAxMeaWNjbHVzdGVyMTAzLmljY2x1
c3Rlci5lcGZsLmNoMIIBIjANBgkqhkiG9w0BAQEFAAOCAQ8AMIIBCgKCAQEAgPqO
1FxBmq8mrCed6ifk9/LdBZxqPhGduJmWJIILLM9utwtpDzr+JqQ5S+tWX51rpDFY
9DnlbbSEPYlR9qey5xQWhq7xJesSrdllKQXTPbfpPzOgO1dX8POzMQMcdCPEnX8U
14Z2vgUXEq1HPP7ZfpMr3PdEk+yw420Rj9c0tqPrZjW7a6LOUmlK6NBqJY+Pbvqq
yagJPnp+bThhKdw1GW9JXafIjD4o4Zb7KB40PPoHWWG/RD3fjW6ZGgH3zw73z4Fw
DySNqVHY+GtriRruYW5uXnX/nsEXqRt1m2pm6Eelyrfl7QvMZu2CP/mXZQFM2R8M
MQq668eAvwkC2/mqSQIDAQABo10wWzAJBgNVHRMEAjAAMC8GA1UdEQQoMCaHBApa
JCGCHmljY2x1c3RlcjEwMy5pY2NsdXN0ZXIuZXBmbC5jaDAdBgNVHQ4EFgQUByji
rv8gscmb3tso7VZfwhdARtIwDQYJKoZIhvcNAQELBQADggEBADIORRs1UJ1h/3Mq
CiNGHtIrJPMDOsXrfCyuapfujgQEoXEatT0hwEvheJy0EQ7iY4MQpk2xD1QU22qi
mn9PRIojvmuwdz1ocVyr/19vbgjQrYRT9TZT9vH4o6wkkSJt5gnEIFwF185j9lBg
y4yCIdT8DYobeb0nCZtSfMQWil8t84gtHrYHfM/m1r2trSpL7fbhpgno0ir25kNf
9kFAlosGVQ0r1WeHA4wQqk74LalSZ/BvJHA/IJbUQ6RzM1vukPng630+oXcev/wf
Z+R7gf0pLE+CYhtN2JZCXfCuRr74QnUMgfnZoCDb3hDtTu3hNdW5RxgxqJooQnDs
PZeuENc=
-----END CERTIFICATE-----
