Certificate:
    Data:
        Version: 3 (0x2)
        Serial Number: 9253486240013161138 (0x806afcb54df312b2)
    Signature Algorithm: sha256WithRSAEncryption
        Issuer: C=xx, ST=x, O=x, OU=x, CN=x
        Validity
            Not Before: May  3 09:13:34 2018 GMT
            Not After : May  3 09:13:34 2019 GMT
        Subject: C=CH, ST=VD, L=Lausanne, O=EPFL, OU=LCA1, CN=iccluster081.iccluster.epfl.ch
        Subject Public Key Info:
            Public Key Algorithm: rsaEncryption
                Public-Key: (2048 bit)
                Modulus:
                    00:80:ae:c3:58:87:45:eb:7d:1a:31:02:79:d4:ed:
                    cb:2d:bd:6d:7d:95:6a:49:a3:ed:c1:0c:42:e8:2f:
                    ff:44:b5:66:55:36:fc:85:4b:3b:87:f4:ec:de:e3:
                    7b:0d:e3:9b:93:39:33:23:e8:6d:c5:32:70:03:2c:
                    09:2a:73:98:98:86:48:72:a7:96:93:7e:2e:85:68:
                    f0:be:27:31:8c:43:63:5c:5d:ff:36:aa:41:45:f2:
                    76:fe:62:c0:64:96:50:48:df:24:f4:78:d0:da:b5:
                    fc:50:02:bd:30:55:46:d3:66:0f:0d:f7:f8:f3:9e:
                    e5:56:dd:ff:1d:59:58:cd:57:e0:34:97:ac:84:b0:
                    ed:cb:4f:22:f4:bc:07:81:95:16:22:f3:70:5a:5f:
                    d4:6a:b1:49:1b:c4:24:4b:f4:06:d3:f2:54:d2:cd:
                    90:d9:a5:75:4c:4b:5a:48:c5:f8:6c:88:44:16:ca:
                    ea:04:40:f8:92:bf:da:25:df:f1:9d:e9:c2:aa:5c:
                    49:0c:be:e4:0d:22:26:a1:30:ee:80:07:85:41:0d:
                    33:3e:e2:d4:17:7f:c1:42:b6:e7:a5:da:c0:14:99:
                    ae:ce:18:c1:12:9c:01:cb:0e:6e:e2:0b:bd:04:a0:
                    48:64:29:e8:4d:d6:d3:c3:94:c3:32:34:aa:42:ae:
                    24:75
                Exponent: 65537 (0x10001)
        X509v3 extensions:
            X509v3 Basic Constraints: 
                CA:FALSE
            X509v3 Subject Alternative Name: 
                IP Address:10.90.40.7, DNS:iccluster081.iccluster.epfl.ch
            X509v3 Subject Key Identifier: 
                E9:B8:25:3E:9E:4D:5C:E7:B3:C0:D7:04:25:6C:E1:F9:ED:19:0A:04
    Signature Algorithm: sha256WithRSAEncryption
         8a:55:78:a8:d3:18:7d:08:ea:18:9a:94:2d:59:75:77:a2:6f:
         c0:69:32:3a:06:e3:2b:72:27:28:9a:4c:67:2b:e6:ee:41:72:
         8c:c7:41:2a:2a:bc:0d:4a:95:02:2d:c4:a9:30:69:e7:c7:a7:
         d5:dd:75:cb:9b:db:b8:35:c3:96:f8:81:d7:04:8c:ea:77:86:
         b4:26:21:4f:1c:aa:e1:1b:b9:9e:23:64:5d:d3:76:db:e7:51:
         37:a7:58:a8:13:27:6c:bb:e5:77:21:07:42:6b:29:ea:58:e2:
         04:d3:33:99:a0:0c:af:3c:f0:13:68:45:0d:1a:3f:25:f3:61:
         d8:5f:fa:87:eb:a1:10:3d:29:20:a0:b1:73:bb:89:38:05:e5:
         63:e1:19:37:80:ec:b8:cd:fe:61:fe:89:c9:bd:06:33:33:bc:
         a9:31:f3:82:97:90:aa:cd:37:60:55:49:68:d4:d5:1b:e7:a2:
         21:96:3c:16:f0:a6:aa:54:f5:3f:b9:e3:17:f0:59:35:92:9f:
         10:c7:1d:6f:1c:86:9f:68:b0:6b:d2:7e:bf:c2:0c:b4:ad:f4:
         e2:84:a4:dd:42:ff:31:dd:37:ff:2b:2c:fd:4b:61:d4:0a:3a:
         b4:91:41:63:1b:29:91:28:8a:d5:b1:ff:a3:de:c9:1a:30:d6:
         5f:4e:5e:10
-----BEGIN CERTIFICATE-----
MIIDkTCCAnmgAwIBAgIJAIBq/LVN8xKyMA0GCSqGSIb3DQEBCwUAMD0xCzAJBgNV
BAYTAnh4MQowCAYDVQQIDAF4MQowCAYDVQQKDAF4MQowCAYDVQQLDAF4MQowCAYD
VQQDDAF4MB4XDTE4MDUwMzA5MTMzNFoXDTE5MDUwMzA5MTMzNFowdDELMAkGA1UE
BhMCQ0gxCzAJBgNVBAgTAlZEMREwDwYDVQQHEwhMYXVzYW5uZTENMAsGA1UEChME
RVBGTDENMAsGA1UECxMETENBMTEnMCUGA1UEAxMeaWNjbHVzdGVyMDgxLmljY2x1
c3Rlci5lcGZsLmNoMIIBIjANBgkqhkiG9w0BAQEFAAOCAQ8AMIIBCgKCAQEAgK7D
WIdF630aMQJ51O3LLb1tfZVqSaPtwQxC6C//RLVmVTb8hUs7h/Ts3uN7DeObkzkz
I+htxTJwAywJKnOYmIZIcqeWk34uhWjwvicxjENjXF3/NqpBRfJ2/mLAZJZQSN8k
9HjQ2rX8UAK9MFVG02YPDff4857lVt3/HVlYzVfgNJeshLDty08i9LwHgZUWIvNw
Wl/UarFJG8QkS/QG0/JU0s2Q2aV1TEtaSMX4bIhEFsrqBED4kr/aJd/xnenCqlxJ
DL7kDSImoTDugAeFQQ0zPuLUF3/BQrbnpdrAFJmuzhjBEpwByw5u4gu9BKBIZCno
TdbTw5TDMjSqQq4kdQIDAQABo10wWzAJBgNVHRMEAjAAMC8GA1UdEQQoMCaHBApa
KAeCHmljY2x1c3RlcjA4MS5pY2NsdXN0ZXIuZXBmbC5jaDAdBgNVHQ4EFgQU6bgl
Pp5NXOezwNcEJWzh+e0ZCgQwDQYJKoZIhvcNAQELBQADggEBAIpVeKjTGH0I6hia
lC1ZdXeib8BpMjoG4ytyJyiaTGcr5u5BcozHQSoqvA1KlQItxKkwaefHp9Xddcub
27g1w5b4gdcEjOp3hrQmIU8cquEbuZ4jZF3TdtvnUTenWKgTJ2y75XchB0JrKepY
4gTTM5mgDK888BNoRQ0aPyXzYdhf+ofroRA9KSCgsXO7iTgF5WPhGTeA7LjN/mH+
icm9BjMzvKkx84KXkKrNN2BVSWjU1RvnoiGWPBbwpqpU9T+54xfwWTWSnxDHHW8c
hp9osGvSfr/CDLSt9OKEpN1C/zHdN/8rLP1LYdQKOrSRQWMbKZEoitWx/6PeyRow
1l9OXhA=
-----END CERTIFICATE-----
