Certificate:
    Data:
        Version: 3 (0x2)
        Serial Number: 9253486240013161139 (0x806afcb54df312b3)
    Signature Algorithm: sha256WithRSAEncryption
        Issuer: C=xx, ST=x, O=x, OU=x, CN=x
        Validity
            Not Before: May  3 09:13:42 2018 GMT
            Not After : May  3 09:13:42 2019 GMT
        Subject: C=CH, ST=VD, L=Lausanne, O=EPFL, OU=LCA1, CN=iccluster093.iccluster.epfl.ch
        Subject Public Key Info:
            Public Key Algorithm: rsaEncryption
                Public-Key: (2048 bit)
                Modulus:
                    00:ac:4c:32:38:33:be:d4:52:3b:8c:be:75:a6:8c:
                    e6:60:d9:3b:66:43:82:f5:79:5e:20:96:cc:12:5e:
                    f8:32:72:13:a5:d8:be:9b:7c:ff:85:bc:72:d8:96:
                    30:ea:6a:9a:ae:26:e7:45:97:81:ab:bb:94:21:85:
                    64:bd:67:14:e4:32:82:a6:d9:2a:7b:5f:77:ee:33:
                    a0:ff:94:23:49:a4:dc:bb:2e:03:e4:a7:e9:5f:d2:
                    46:77:a5:eb:a9:4c:d2:75:6a:99:ee:26:1a:e4:89:
                    11:ff:b7:d3:8d:10:b9:5a:4f:ad:87:f3:cb:33:39:
                    0f:ab:f6:81:fc:7c:f0:a9:48:8b:80:f9:39:35:a6:
                    9f:6e:97:43:b7:39:1c:f4:45:46:be:27:f6:c9:51:
                    a3:73:6e:b7:01:1e:c6:e9:f8:dc:c9:50:92:5f:ab:
                    8c:52:1e:69:0f:4c:88:e1:c9:63:0f:3c:8a:28:d0:
                    dd:7e:02:97:ab:26:39:db:f3:c5:fe:bf:1a:fb:c0:
                    1e:b0:b2:78:3f:40:22:12:bd:94:89:4e:63:6d:d2:
                    33:28:b7:cc:27:b4:c9:65:5e:95:a1:a7:05:92:c5:
                    06:ea:f5:01:ce:12:72:f7:02:ba:5f:73:d9:cd:00:
                    54:8a:34:97:b0:e8:2a:2c:78:25:9d:fa:4f:44:e3:
                    8c:51
                Exponent: 65537 (0x10001)
        X509v3 extensions:
            X509v3 Basic Constraints: 
                CA:FALSE
            X509v3 Subject Alternative Name: 
                IP Address:10.90.40.19, DNS:iccluster093.iccluster.epfl.ch
            X509v3 Subject Key Identifier: 
                46:53:01:A6:1D:2E:B6:C8:21:AA:7F:3F:A9:74:2C:6C:83:B8:EB:97
    Signature Algorithm: sha256WithRSAEncryption
         35:2e:a5:c1:23:37:2f:85:51:bb:56:fb:f8:09:a5:0f:a9:a9:
         cf:cb:1d:b8:9a:b0:33:b5:8a:70:70:bf:30:0f:7e:af:d0:53:
         8f:f1:b7:73:9b:df:f6:f3:99:f8:00:81:ce:70:97:19:a3:81:
         62:aa:c8:41:e6:81:65:fd:c8:ce:48:c9:fe:5b:e0:1b:eb:c2:
         5f:fb:2d:82:ee:b2:3f:34:d3:61:c6:09:3f:94:05:9f:84:dd:
         2f:95:f1:2f:38:e9:86:5d:05:fe:ea:90:3a:c6:a8:d5:be:01:
         0d:69:38:32:0c:51:c1:0b:19:97:e7:ae:c3:ad:33:12:a6:54:
         97:10:db:0a:98:c1:96:55:a9:79:86:96:13:6b:b4:a2:11:fd:
         a3:8a:7d:c6:44:2a:6a:0f:cf:17:8a:6e:02:0b:21:33:40:a7:
         f4:e7:2c:26:fd:7c:66:65:a4:1c:c5:2f:41:e9:f7:d5:1b:d4:
         f0:dc:6d:1f:e4:c2:bb:27:20:2e:bd:f1:4e:9f:18:b1:75:a8:
         58:fa:78:5a:03:f8:c9:dd:98:31:a8:d0:09:fc:f0:90:fc:1e:
         a8:11:52:60:89:f2:b4:08:ef:ad:6e:be:79:b0:6d:c4:51:69:
         09:f2:a1:9b:13:86:e5:18:51:4c:76:7e:2e:7a:b5:64:ff:9f:
         87:51:ac:84
-----BEGIN CERTIFICATE-----
MIIDkTCCAnmgAwIBAgIJAIBq/LVN8xKzMA0GCSqGSIb3DQEBCwUAMD0xCzAJBgNV
BAYTAnh4MQowCAYDVQQIDAF4MQowCAYDVQQKDAF4MQowCAYDVQQLDAF4MQowCAYD
VQQDDAF4MB4XDTE4MDUwMzA5MTM0MloXDTE5MDUwMzA5MTM0MlowdDELMAkGA1UE
BhMCQ0gxCzAJBgNVBAgTAlZEMREwDwYDVQQHEwhMYXVzYW5uZTENMAsGA1UEChME
RVBGTDENMAsGA1UECxMETENBMTEnMCUGA1UEAxMeaWNjbHVzdGVyMDkzLmljY2x1
c3Rlci5lcGZsLmNoMIIBIjANBgkqhkiG9w0BAQEFAAOCAQ8AMIIBCgKCAQEArEwy
ODO+1FI7jL51pozmYNk7ZkOC9XleIJbMEl74MnITpdi+m3z/hbxy2JYw6mqaribn
RZeBq7uUIYVkvWcU5DKCptkqe1937jOg/5QjSaTcuy4D5KfpX9JGd6XrqUzSdWqZ
7iYa5IkR/7fTjRC5Wk+th/PLMzkPq/aB/HzwqUiLgPk5NaafbpdDtzkc9EVGvif2
yVGjc263AR7G6fjcyVCSX6uMUh5pD0yI4cljDzyKKNDdfgKXqyY52/PF/r8a+8Ae
sLJ4P0AiEr2UiU5jbdIzKLfMJ7TJZV6VoacFksUG6vUBzhJy9wK6X3PZzQBUijSX
sOgqLHglnfpPROOMUQIDAQABo10wWzAJBgNVHRMEAjAAMC8GA1UdEQQoMCaHBApa
KBOCHmljY2x1c3RlcjA5My5pY2NsdXN0ZXIuZXBmbC5jaDAdBgNVHQ4EFgQURlMB
ph0utsghqn8/qXQsbIO465cwDQYJKoZIhvcNAQELBQADggEBADUupcEjNy+FUbtW
+/gJpQ+pqc/LHbiasDO1inBwvzAPfq/QU4/xt3Ob3/bzmfgAgc5wlxmjgWKqyEHm
gWX9yM5Iyf5b4Bvrwl/7LYLusj8002HGCT+UBZ+E3S+V8S846YZdBf7qkDrGqNW+
AQ1pODIMUcELGZfnrsOtMxKmVJcQ2wqYwZZVqXmGlhNrtKIR/aOKfcZEKmoPzxeK
bgILITNAp/TnLCb9fGZlpBzFL0Hp99Ub1PDcbR/kwrsnIC698U6fGLF1qFj6eFoD
+MndmDGo0An88JD8HqgRUmCJ8rQI761uvnmwbcRRaQnyoZsThuUYUUx2fi56tWT/
n4dRrIQ=
-----END CERTIFICATE-----
