Certificate:
    Data:
        Version: 3 (0x2)
        Serial Number: 9253486240013161142 (0x806afcb54df312b6)
    Signature Algorithm: sha256WithRSAEncryption
        Issuer: C=xx, ST=x, O=x, OU=x, CN=x
        Validity
            Not Before: May  3 09:14:04 2018 GMT
            Not After : May  3 09:14:04 2019 GMT
        Subject: C=CH, ST=VD, L=Lausanne, O=EPFL, OU=LCA1, CN=iccluster104.iccluster.epfl.ch
        Subject Public Key Info:
            Public Key Algorithm: rsaEncryption
                Public-Key: (2048 bit)
                Modulus:
                    00:9a:26:72:a1:bf:f9:e1:43:15:4f:c4:c3:df:46:
                    b9:29:09:b5:cc:4d:78:3f:e3:49:c0:35:1c:f4:40:
                    29:20:75:62:54:44:ee:46:ec:db:c5:9d:c9:bd:fe:
                    f1:ba:bb:7d:f4:08:25:77:5c:fe:94:2a:1b:fd:be:
                    23:b4:37:4d:05:6f:55:05:d3:ce:5f:32:2e:53:5d:
                    5b:7c:a4:a6:37:7e:84:62:ba:6f:4d:98:a5:8d:35:
                    68:8f:64:67:89:22:40:d0:75:5d:4a:ca:be:7e:0a:
                    b1:2a:16:b4:ab:64:4c:cf:06:42:83:dc:34:0e:bb:
                    b3:f4:26:6d:47:05:7b:ba:32:4a:83:21:39:aa:25:
                    81:ca:92:ea:fe:38:70:7c:e3:88:b9:93:ec:c0:e5:
                    81:af:13:dc:10:6b:e2:a9:df:5c:27:ed:20:fb:1f:
                    67:8f:b3:51:52:32:ea:4f:98:97:0d:a5:6f:e2:60:
                    6b:56:50:ec:19:46:d5:18:8c:a6:bc:3f:68:5f:44:
                    e5:f1:59:98:03:76:b4:20:46:2f:b4:3b:f6:6b:15:
                    cd:f8:27:6d:73:2b:f9:68:6d:38:9a:bc:9f:36:95:
                    33:a7:da:31:ef:e3:e2:7d:dd:da:a4:4e:c3:43:15:
                    4b:08:3a:b4:a9:74:0f:b4:a7:c4:9c:09:b5:4c:c6:
                    37:c1
                Exponent: 65537 (0x10001)
        X509v3 extensions:
            X509v3 Basic Constraints: 
                CA:FALSE
            X509v3 Subject Alternative Name: 
                IP Address:10.90.36.34, DNS:iccluster104.iccluster.epfl.ch
            X509v3 Subject Key Identifier: 
                E1:E4:3D:77:EE:91:AE:80:D0:BE:A1:09:C9:56:C7:CF:F0:E7:61:AE
    Signature Algorithm: sha256WithRSAEncryption
         25:1d:5e:56:1c:ca:3e:66:00:8e:39:10:e5:9e:1f:8e:06:0d:
         28:33:57:77:18:82:8c:b5:2f:4d:86:b9:db:68:56:cb:9d:d7:
         a5:d4:fd:73:26:ac:e5:fd:ed:45:fc:d5:f6:ee:60:ac:49:71:
         42:97:d9:53:60:bf:c2:78:c5:15:bd:a9:d6:0c:39:8c:f2:26:
         18:b2:61:40:e9:78:51:12:c9:77:f1:9c:2f:06:e8:2a:6b:d3:
         8e:ce:12:f5:55:1a:40:22:37:83:83:3d:77:4d:32:0f:c5:b6:
         65:87:73:66:1c:1b:ab:ee:57:ec:fb:ea:2d:ae:90:51:f3:22:
         06:b2:b3:75:f1:c8:b6:90:cc:e3:ee:f6:46:97:f8:9d:74:20:
         f9:46:b9:51:67:e4:30:ba:2a:7d:d9:12:6a:2d:51:0b:b4:63:
         bb:15:7c:b3:3e:7b:bd:28:74:b9:6d:40:72:ba:d0:0c:76:b9:
         12:6e:3b:c4:59:e6:4e:9e:0c:80:aa:c4:e4:7f:e8:f6:49:78:
         c5:f8:8d:8e:56:70:70:dd:3e:68:1b:c9:bd:8c:c9:db:5e:07:
         b9:e1:82:51:c2:ac:9a:f7:58:e3:50:a4:33:85:88:f2:96:54:
         f8:4c:fb:ec:31:22:48:be:31:1c:fb:1b:ab:e4:1a:62:11:ae:
         df:fa:3c:0b
-----BEGIN CERTIFICATE-----
MIIDkTCCAnmgAwIBAgIJAIBq/LVN8xK2MA0GCSqGSIb3DQEBCwUAMD0xCzAJBgNV
BAYTAnh4MQowCAYDVQQIDAF4MQowCAYDVQQKDAF4MQowCAYDVQQLDAF4MQowCAYD
VQQDDAF4MB4XDTE4MDUwMzA5MTQwNFoXDTE5MDUwMzA5MTQwNFowdDELMAkGA1UE
BhMCQ0gxCzAJBgNVBAgTAlZEMREwDwYDVQQHEwhMYXVzYW5uZTENMAsGA1UEChME
RVBGTDENMAsGA1UECxMETENBMTEnMCUGA1UEAxMeaWNjbHVzdGVyMTA0LmljY2x1
c3Rlci5lcGZsLmNoMIIBIjANBgkqhkiG9w0BAQEFAAOCAQ8AMIIBCgKCAQEAmiZy
ob/54UMVT8TD30a5KQm1zE14P+NJwDUc9EApIHViVETuRuzbxZ3Jvf7xurt99Agl
d1z+lCob/b4jtDdNBW9VBdPOXzIuU11bfKSmN36EYrpvTZiljTVoj2RniSJA0HVd
Ssq+fgqxKha0q2RMzwZCg9w0Druz9CZtRwV7ujJKgyE5qiWBypLq/jhwfOOIuZPs
wOWBrxPcEGviqd9cJ+0g+x9nj7NRUjLqT5iXDaVv4mBrVlDsGUbVGIymvD9oX0Tl
8VmYA3a0IEYvtDv2axXN+Cdtcyv5aG04mryfNpUzp9ox7+Pifd3apE7DQxVLCDq0
qXQPtKfEnAm1TMY3wQIDAQABo10wWzAJBgNVHRMEAjAAMC8GA1UdEQQoMCaHBApa
JCKCHmljY2x1c3RlcjEwNC5pY2NsdXN0ZXIuZXBmbC5jaDAdBgNVHQ4EFgQU4eQ9
d+6RroDQvqEJyVbHz/DnYa4wDQYJKoZIhvcNAQELBQADggEBACUdXlYcyj5mAI45
EOWeH44GDSgzV3cYgoy1L02GudtoVsud16XU/XMmrOX97UX81fbuYKxJcUKX2VNg
v8J4xRW9qdYMOYzyJhiyYUDpeFESyXfxnC8G6Cpr047OEvVVGkAiN4ODPXdNMg/F
tmWHc2YcG6vuV+z76i2ukFHzIgays3XxyLaQzOPu9kaX+J10IPlGuVFn5DC6Kn3Z
EmotUQu0Y7sVfLM+e70odLltQHK60Ax2uRJuO8RZ5k6eDICqxOR/6PZJeMX4jY5W
cHDdPmgbyb2MydteB7nhglHCrJr3WONQpDOFiPKWVPhM++wxIki+MRz7G6vkGmIR
rt/6PAs=
-----END CERTIFICATE-----
