Certificate:
    Data:
        Version: 3 (0x2)
        Serial Number: 9253486240013161143 (0x806afcb54df312b7)
    Signature Algorithm: sha256WithRSAEncryption
        Issuer: C=xx, ST=x, O=x, OU=x, CN=x
        Validity
            Not Before: May  3 09:14:12 2018 GMT
            Not After : May  3 09:14:12 2019 GMT
        Subject: C=CH, ST=VD, L=Lausanne, O=EPFL, OU=LCA1, CN=iccluster105.iccluster.epfl.ch
        Subject Public Key Info:
            Public Key Algorithm: rsaEncryption
                Public-Key: (2048 bit)
                Modulus:
                    00:d2:fa:2f:28:42:b5:25:c8:76:02:b4:27:9a:d2:
                    d5:67:a5:10:c1:52:21:e6:2e:fc:7c:d2:39:fb:ac:
                    ef:32:26:91:15:0e:92:58:d0:23:0a:9a:13:de:dd:
                    38:1f:a3:a7:b3:d1:c6:f1:96:25:25:f0:e2:b4:84:
                    a3:63:49:52:19:f2:2e:1a:aa:d1:84:1b:33:40:f9:
                    43:77:13:a1:c0:fc:4e:f0:d4:ce:4a:e8:26:d7:25:
                    84:6b:63:cc:8a:18:eb:c9:da:e5:fe:c0:3a:c1:95:
                    9b:d8:46:32:b8:5f:70:9b:ac:eb:5e:df:f6:fb:93:
                    3a:b3:f2:72:a0:f4:7e:d6:08:80:4f:92:01:e2:04:
                    04:af:56:dc:69:cd:d1:d0:5e:90:ee:48:58:4e:e0:
                    58:e8:7a:5b:40:c6:05:c9:e0:ee:be:48:cf:53:6a:
                    45:04:3c:8a:79:e8:ad:61:c5:4c:23:04:b1:73:af:
                    65:20:29:95:3c:44:2a:be:48:9a:55:2d:c9:eb:e8:
                    98:38:38:6c:61:c3:f1:6f:e7:a2:36:39:2e:df:5a:
                    37:99:37:42:7f:d1:c8:3b:c2:9c:55:46:aa:be:ab:
                    49:fc:6b:f9:8f:82:f2:0a:1b:97:ab:0e:66:96:38:
                    3f:51:82:8b:f9:b6:b7:9d:0d:54:e6:d5:90:a2:92:
                    6c:e7
                Exponent: 65537 (0x10001)
        X509v3 extensions:
            X509v3 Basic Constraints: 
                CA:FALSE
            X509v3 Subject Alternative Name: 
                IP Address:10.90.36.35, DNS:iccluster105.iccluster.epfl.ch
            X509v3 Subject Key Identifier: 
                E9:FD:9B:B1:55:EA:9D:0B:48:A2:3F:37:33:0E:C1:55:65:41:5B:BC
    Signature Algorithm: sha256WithRSAEncryption
         91:a4:08:f7:51:93:b8:5b:c3:be:e4:6a:45:d2:dc:2c:db:fd:
         13:a7:b2:f6:69:a2:8e:58:b5:9c:57:fa:b3:0b:93:bd:c8:3b:
         1e:47:78:07:1b:17:4e:ab:92:ff:31:a5:bd:ac:ac:0c:ba:80:
         67:84:3f:08:d4:ae:c8:a0:1d:4b:e2:c1:07:c0:8d:d8:be:58:
         f2:d9:57:ef:fa:48:c1:e4:18:84:79:20:bd:2c:e3:00:b1:58:
         4c:02:7b:87:18:6b:62:11:9f:63:92:70:28:7c:eb:d0:d3:1b:
         99:69:27:0b:91:9b:91:64:d2:9b:b5:8b:ad:f4:ce:05:e5:c1:
         d1:4b:92:05:d9:46:11:fc:29:1e:de:40:8f:df:28:b1:23:b1:
         4e:4f:7a:5e:bd:9a:53:11:98:03:dd:df:11:e5:ab:c1:f0:48:
         eb:f3:73:cc:dc:a4:2b:31:55:08:0d:23:c4:85:e3:8a:ba:ef:
         c6:6a:9f:49:ce:f2:2a:bc:c4:01:9f:db:2a:d4:38:03:5d:c6:
         b0:c1:ec:f1:ee:b1:bc:fd:09:df:5b:77:91:b9:e5:b2:cd:ab:
         2f:58:dd:cb:2b:b0:9a:88:2d:bc:42:56:fb:41:f1:3b:b1:cf:
         1c:ce:ba:e0:0b:de:99:97:83:45:7c:40:76:92:8e:8f:35:02:
         32:b7:8d:1d
-----BEGIN CERTIFICATE-----
MIIDkTCCAnmgAwIBAgIJAIBq/LVN8xK3MA0GCSqGSIb3DQEBCwUAMD0xCzAJBgNV
BAYTAnh4MQowCAYDVQQIDAF4MQowCAYDVQQKDAF4MQowCAYDVQQLDAF4MQowCAYD
VQQDDAF4MB4XDTE4MDUwMzA5MTQxMloXDTE5MDUwMzA5MTQxMlowdDELMAkGA1UE
BhMCQ0gxCzAJBgNVBAgTAlZEMREwDwYDVQQHEwhMYXVzYW5uZTENMAsGA1UEChME
RVBGTDENMAsGA1UECxMETENBMTEnMCUGA1UEAxMeaWNjbHVzdGVyMTA1LmljY2x1
c3Rlci5lcGZsLmNoMIIBIjANBgkqhkiG9w0BAQEFAAOCAQ8AMIIBCgKCAQEA0vov
KEK1Jch2ArQnmtLVZ6UQwVIh5i78fNI5+6zvMiaRFQ6SWNAjCpoT3t04H6Ons9HG
8ZYlJfDitISjY0lSGfIuGqrRhBszQPlDdxOhwPxO8NTOSugm1yWEa2PMihjrydrl
/sA6wZWb2EYyuF9wm6zrXt/2+5M6s/JyoPR+1giAT5IB4gQEr1bcac3R0F6Q7khY
TuBY6HpbQMYFyeDuvkjPU2pFBDyKeeitYcVMIwSxc69lICmVPEQqvkiaVS3J6+iY
ODhsYcPxb+eiNjku31o3mTdCf9HIO8KcVUaqvqtJ/Gv5j4LyChuXqw5mljg/UYKL
+ba3nQ1U5tWQopJs5wIDAQABo10wWzAJBgNVHRMEAjAAMC8GA1UdEQQoMCaHBApa
JCOCHmljY2x1c3RlcjEwNS5pY2NsdXN0ZXIuZXBmbC5jaDAdBgNVHQ4EFgQU6f2b
sVXqnQtIoj83Mw7BVWVBW7wwDQYJKoZIhvcNAQELBQADggEBAJGkCPdRk7hbw77k
akXS3Czb/ROnsvZpoo5YtZxX+rMLk73IOx5HeAcbF06rkv8xpb2srAy6gGeEPwjU
rsigHUviwQfAjdi+WPLZV+/6SMHkGIR5IL0s4wCxWEwCe4cYa2IRn2OScCh869DT
G5lpJwuRm5Fk0pu1i630zgXlwdFLkgXZRhH8KR7eQI/fKLEjsU5Pel69mlMRmAPd
3xHlq8HwSOvzc8zcpCsxVQgNI8SF44q678Zqn0nO8iq8xAGf2yrUOANdxrDB7PHu
sbz9Cd9bd5G55bLNqy9Y3csrsJqILbxCVvtB8TuxzxzOuuAL3pmXg0V8QHaSjo81
AjK3jR0=
-----END CERTIFICATE-----
