Certificate:
    Data:
        Version: 3 (0x2)
        Serial Number: 9253486240013161136 (0x806afcb54df312b0)
    Signature Algorithm: sha256WithRSAEncryption
        Issuer: C=xx, ST=x, O=x, OU=x, CN=x
        Validity
            Not Before: May  3 09:13:21 2018 GMT
            Not After : May  3 09:13:21 2019 GMT
        Subject: C=CH, ST=VD, L=Lausanne, O=EPFL, OU=LCA1, CN=iccluster070.iccluster.epfl.ch
        Subject Public Key Info:
            Public Key Algorithm: rsaEncryption
                Public-Key: (2048 bit)
                Modulus:
                    00:ad:a4:61:6d:8e:62:4c:76:b1:4a:ba:2c:a5:b3:
                    99:82:9c:2f:cf:72:83:a0:3e:f5:b1:4e:5b:7f:c4:
                    59:03:2a:01:e7:82:97:81:ad:fe:ae:5b:30:dc:e7:
                    87:6b:46:82:87:5b:63:41:17:fb:84:db:57:86:b8:
                    6f:30:6e:c0:d9:3d:d0:f7:d7:3b:67:43:a2:80:f1:
                    64:50:79:8b:66:7b:b9:37:a0:20:2b:ba:89:a7:1c:
                    b4:18:21:5b:db:9a:20:0f:cb:a1:5e:f5:28:cf:3d:
                    3c:1e:4c:ca:68:27:da:79:28:a9:a1:f1:90:3e:eb:
                    fc:71:ff:6b:67:13:06:48:a9:97:34:ed:ea:85:40:
                    9a:69:74:f4:8b:e1:41:8b:f0:54:26:34:18:eb:c4:
                    be:cf:e6:cd:b0:2c:a5:5f:18:27:36:cc:3b:0f:48:
                    b4:8a:a0:27:25:2c:d6:16:3e:79:f8:b5:82:83:a2:
                    68:27:2a:21:91:18:4f:ef:99:23:4b:39:44:47:44:
                    de:e2:14:1d:1b:08:9d:96:10:c4:7e:08:7a:a3:7e:
                    e4:ce:67:9b:5a:af:66:4f:bc:18:1c:da:78:bf:a4:
                    eb:e4:2f:a0:51:0e:a6:31:39:e2:57:12:b7:52:ad:
                    b3:30:0e:da:9f:ec:0c:59:7a:6f:5c:05:18:f4:47:
                    15:f3
                Exponent: 65537 (0x10001)
        X509v3 extensions:
            X509v3 Basic Constraints: 
                CA:FALSE
            X509v3 Subject Alternative Name: 
                IP Address:10.90.39.21, DNS:iccluster070.iccluster.epfl.ch
            X509v3 Subject Key Identifier: 
                8C:AA:E2:71:76:95:63:23:AC:65:D6:9E:5D:13:93:99:93:69:15:43
    Signature Algorithm: sha256WithRSAEncryption
         29:51:41:bd:1b:29:5f:28:8d:ed:41:e0:c6:1f:b4:d1:e1:93:
         1b:76:66:06:5a:c5:ec:a7:bf:c1:08:85:f5:d0:c6:ec:b8:8e:
         8b:13:18:a1:da:45:ac:8a:63:52:4b:e0:15:7c:eb:c6:7c:53:
         f1:3f:4e:1e:4c:a2:8f:ad:55:44:09:9c:ab:3f:e3:62:9d:0b:
         45:85:7e:c7:3a:27:9f:f4:44:69:12:aa:72:bc:95:bf:44:df:
         53:39:14:df:2b:40:b9:4b:e7:fa:1e:fe:04:61:84:0e:88:bf:
         d4:97:71:d0:7d:85:b0:ac:4a:3b:22:ac:f2:85:31:ce:ad:ef:
         e2:d4:eb:ab:e0:cc:b7:ee:0f:b8:ad:c5:fe:40:a9:e7:4e:17:
         37:8e:13:3d:b5:ba:25:77:8b:4a:79:df:fc:c7:71:c0:81:1e:
         f2:1a:92:54:48:37:37:e1:a1:bc:bd:f0:85:7f:ae:29:3f:a9:
         34:51:9a:8f:5e:96:27:17:37:51:0e:07:1a:17:c0:2b:35:36:
         98:6e:d9:89:c8:e8:2e:a1:15:15:b4:b7:c6:01:07:6e:df:d7:
         4d:85:20:af:66:61:ed:4f:8e:0d:38:22:01:0a:fc:67:fd:86:
         d0:a7:2e:4e:02:7a:bd:c9:58:e1:30:e7:ce:d4:59:2c:7c:cb:
         d2:ae:a7:a3
-----BEGIN CERTIFICATE-----
MIIDkTCCAnmgAwIBAgIJAIBq/LVN8xKwMA0GCSqGSIb3DQEBCwUAMD0xCzAJBgNV
BAYTAnh4MQowCAYDVQQIDAF4MQowCAYDVQQKDAF4MQowCAYDVQQLDAF4MQowCAYD
VQQDDAF4MB4XDTE4MDUwMzA5MTMyMVoXDTE5MDUwMzA5MTMyMVowdDELMAkGA1UE
BhMCQ0gxCzAJBgNVBAgTAlZEMREwDwYDVQQHEwhMYXVzYW5uZTENMAsGA1UEChME
RVBGTDENMAsGA1UECxMETENBMTEnMCUGA1UEAxMeaWNjbHVzdGVyMDcwLmljY2x1
c3Rlci5lcGZsLmNoMIIBIjANBgkqhkiG9w0BAQEFAAOCAQ8AMIIBCgKCAQEAraRh
bY5iTHaxSrospbOZgpwvz3KDoD71sU5bf8RZAyoB54KXga3+rlsw3OeHa0aCh1tj
QRf7hNtXhrhvMG7A2T3Q99c7Z0OigPFkUHmLZnu5N6AgK7qJpxy0GCFb25ogD8uh
XvUozz08HkzKaCfaeSipofGQPuv8cf9rZxMGSKmXNO3qhUCaaXT0i+FBi/BUJjQY
68S+z+bNsCylXxgnNsw7D0i0iqAnJSzWFj55+LWCg6JoJyohkRhP75kjSzlER0Te
4hQdGwidlhDEfgh6o37kzmebWq9mT7wYHNp4v6Tr5C+gUQ6mMTniVxK3Uq2zMA7a
n+wMWXpvXAUY9EcV8wIDAQABo10wWzAJBgNVHRMEAjAAMC8GA1UdEQQoMCaHBApa
JxWCHmljY2x1c3RlcjA3MC5pY2NsdXN0ZXIuZXBmbC5jaDAdBgNVHQ4EFgQUjKri
cXaVYyOsZdaeXROTmZNpFUMwDQYJKoZIhvcNAQELBQADggEBAClRQb0bKV8oje1B
4MYftNHhkxt2ZgZaxeynv8EIhfXQxuy4josTGKHaRayKY1JL4BV868Z8U/E/Th5M
oo+tVUQJnKs/42KdC0WFfsc6J5/0RGkSqnK8lb9E31M5FN8rQLlL5/oe/gRhhA6I
v9SXcdB9hbCsSjsirPKFMc6t7+LU66vgzLfuD7itxf5AqedOFzeOEz21uiV3i0p5
3/zHccCBHvIaklRINzfhoby98IV/rik/qTRRmo9elicXN1EOBxoXwCs1Nphu2YnI
6C6hFRW0t8YBB27f102FIK9mYe1Pjg04IgEK/Gf9htCnLk4Cer3JWOEw587UWSx8
y9Kup6M=
-----END CERTIFICATE-----
