Certificate:
    Data:
        Version: 3 (0x2)
        Serial Number: 9253486240013161140 (0x806afcb54df312b4)
    Signature Algorithm: sha256WithRSAEncryption
        Issuer: C=xx, ST=x, O=x, OU=x, CN=x
        Validity
            Not Before: May  3 09:13:49 2018 GMT
            Not After : May  3 09:13:49 2019 GMT
        Subject: C=CH, ST=VD, L=Lausanne, O=EPFL, OU=LCA1, CN=iccluster102.iccluster.epfl.ch
        Subject Public Key Info:
            Public Key Algorithm: rsaEncryption
                Public-Key: (2048 bit)
                Modulus:
                    00:89:54:d6:4f:cf:06:74:e0:9e:9d:4d:1b:d6:80:
                    58:d8:37:2e:eb:ae:73:ca:56:36:05:88:5c:50:93:
                    e2:2f:69:d7:e2:ba:48:01:9c:84:75:a5:9a:b1:68:
                    02:10:ac:3c:89:b8:34:00:7a:21:fa:20:db:ce:a8:
                    70:1f:e4:6d:25:e1:52:64:56:64:9a:e6:f1:65:b5:
                    a9:12:fe:f7:41:a7:63:4b:60:32:b8:ef:d4:ee:97:
                    3a:95:bc:e2:31:8c:a8:59:d8:c9:a6:2c:78:75:f1:
                    09:f5:04:b8:42:4d:89:d4:0d:13:56:a1:c3:f5:a6:
                    7f:ca:3f:d1:7a:b1:1b:6d:5a:1e:f1:e6:7d:d1:eb:
                    31:2b:84:28:3b:a3:03:19:30:62:a2:3c:52:3c:7d:
                    b8:03:74:39:13:0b:d8:05:27:2e:58:95:b7:7b:bc:
                    c7:d5:fb:f1:02:4f:7a:72:80:aa:a2:d2:55:84:fb:
                    3a:34:5e:e6:11:46:20:41:7e:4c:a9:38:65:10:57:
                    5d:9d:0f:b4:24:e6:f8:aa:fd:52:a2:b4:30:91:0d:
                    cd:80:2e:71:82:3b:9e:0d:38:7e:78:9f:68:ef:7c:
                    60:02:c5:82:c4:4e:16:6b:d4:22:aa:4a:b0:c4:a9:
                    04:26:73:97:36:2a:1f:ab:c8:fa:b7:6b:dd:32:49:
                    61:99
                Exponent: 65537 (0x10001)
        X509v3 extensions:
            X509v3 Basic Constraints: 
                CA:FALSE
            X509v3 Subject Alternative Name: 
                IP Address:10.90.36.32, DNS:iccluster102.iccluster.epfl.ch
            X509v3 Subject Key Identifier: 
                B6:92:30:2B:DB:A6:11:41:1E:CC:F7:82:97:84:4A:8D:C5:0C:62:EE
    Signature Algorithm: sha256WithRSAEncryption
         63:f6:66:b9:5e:0a:f3:ee:f0:18:70:59:2f:94:d3:b3:fa:e2:
         e3:f1:ac:1c:95:99:6f:54:be:a4:b9:b5:fa:9c:ff:6e:4b:3b:
         b0:d9:c2:28:42:d0:16:21:ec:ae:9a:cf:aa:68:62:03:dc:a4:
         59:c7:e4:78:de:a2:c0:a7:38:d0:da:eb:67:63:ac:d1:c1:fa:
         30:15:9b:8b:f3:6b:d5:33:41:d7:af:d0:e2:19:08:23:85:5c:
         07:71:38:1f:60:7b:d3:ab:f0:f1:85:88:b9:fa:3b:2d:29:c6:
         e9:52:cc:51:12:85:97:4b:3d:f0:22:10:bf:ab:0d:e1:d8:ac:
         10:ae:f3:06:82:86:44:99:07:92:5a:8e:ce:75:17:34:8a:20:
         41:07:7f:b4:f1:86:dc:8d:1a:d9:9f:1e:29:48:54:43:99:7f:
         23:12:9d:a5:af:84:35:94:11:61:7b:9e:80:0c:8b:42:9a:13:
         5a:14:56:da:da:0a:1b:c5:4b:43:40:1a:67:76:79:50:cf:b4:
         b5:76:fd:db:85:b5:c5:23:1f:16:ba:22:25:b0:4e:8e:70:3f:
         c3:85:3c:2f:2e:47:e4:c1:1a:5b:1e:8e:1a:8d:ed:ca:ec:54:
         0c:06:f6:a2:d1:e7:c6:67:c2:31:91:6e:11:89:d1:5e:a5:23:
         2a:ae:55:cf
-----BEGIN CERTIFICATE-----
MIIDkTCCAnmgAwIBAgIJAIBq/LVN8xK0MA0GCSqGSIb3DQEBCwUAMD0xCzAJBgNV
BAYTAnh4MQowCAYDVQQIDAF4MQowCAYDVQQKDAF4MQowCAYDVQQLDAF4MQowCAYD
VQQDDAF4MB4XDTE4MDUwMzA5MTM0OVoXDTE5MDUwMzA5MTM0OVowdDELMAkGA1UE
BhMCQ0gxCzAJBgNVBAgTAlZEMREwDwYDVQQHEwhMYXVzYW5uZTENMAsGA1UEChME
RVBGTDENMAsGA1UECxMETENBMTEnMCUGA1UEAxMeaWNjbHVzdGVyMTAyLmljY2x1
c3Rlci5lcGZsLmNoMIIBIjANBgkqhkiG9w0BAQEFAAOCAQ8AMIIBCgKCAQEAiVTW
T88GdOCenU0b1oBY2Dcu665zylY2BYhcUJPiL2nX4rpIAZyEdaWasWgCEKw8ibg0
AHoh+iDbzqhwH+RtJeFSZFZkmubxZbWpEv73QadjS2AyuO/U7pc6lbziMYyoWdjJ
pix4dfEJ9QS4Qk2J1A0TVqHD9aZ/yj/RerEbbVoe8eZ90esxK4QoO6MDGTBiojxS
PH24A3Q5EwvYBScuWJW3e7zH1fvxAk96coCqotJVhPs6NF7mEUYgQX5MqThlEFdd
nQ+0JOb4qv1SorQwkQ3NgC5xgjueDTh+eJ9o73xgAsWCxE4Wa9QiqkqwxKkEJnOX
Niofq8j6t2vdMklhmQIDAQABo10wWzAJBgNVHRMEAjAAMC8GA1UdEQQoMCaHBApa
JCCCHmljY2x1c3RlcjEwMi5pY2NsdXN0ZXIuZXBmbC5jaDAdBgNVHQ4EFgQUtpIw
K9umEUEezPeCl4RKjcUMYu4wDQYJKoZIhvcNAQELBQADggEBAGP2ZrleCvPu8Bhw
WS+U07P64uPxrByVmW9UvqS5tfqc/25LO7DZwihC0BYh7K6az6poYgPcpFnH5Hje
osCnONDa62djrNHB+jAVm4vza9UzQdev0OIZCCOFXAdxOB9ge9Or8PGFiLn6Oy0p
xulSzFEShZdLPfAiEL+rDeHYrBCu8waChkSZB5Jajs51FzSKIEEHf7TxhtyNGtmf
HilIVEOZfyMSnaWvhDWUEWF7noAMi0KaE1oUVtraChvFS0NAGmd2eVDPtLV2/duF
tcUjHxa6IiWwTo5wP8OFPC8uR+TBGlsejhqN7crsVAwG9qLR58ZnwjGRbhGJ0V6l
IyquVc8=
-----END CERTIFICATE-----
