Certificate:
    Data:
        Version: 3 (0x2)
        Serial Number: 9253486240013161135 (0x806afcb54df312af)
    Signature Algorithm: sha256WithRSAEncryption
        Issuer: C=xx, ST=x, O=x, OU=x, CN=x
        Validity
            Not Before: May  3 09:13:15 2018 GMT
            Not After : May  3 09:13:15 2019 GMT
        Subject: C=CH, ST=VD, L=Lausanne, O=EPFL, OU=LCA1, CN=iccluster056.iccluster.epfl.ch
        Subject Public Key Info:
            Public Key Algorithm: rsaEncryption
                Public-Key: (2048 bit)
                Modulus:
                    00:9c:39:e9:d3:0f:22:79:3c:f5:70:37:c1:5d:be:
                    df:f8:be:99:ff:cb:14:2f:45:83:67:8a:86:cb:c7:
                    11:c7:9b:4e:ed:54:fc:fa:1d:9a:c7:fb:3a:c4:e5:
                    61:e6:46:f8:a2:36:bc:c5:c6:24:ce:bb:52:0d:2e:
                    29:18:63:38:fd:82:50:b2:0a:36:02:7f:7c:a7:18:
                    a4:1c:39:50:0b:5f:3d:ea:cb:68:c3:41:af:c9:db:
                    c7:f5:46:cb:25:15:2d:5a:50:31:79:1e:44:72:6b:
                    12:3c:0d:3c:83:e3:99:27:fc:bb:a6:b7:d1:23:da:
                    35:4f:2d:df:ff:48:e7:97:3f:8d:63:2b:ad:4b:7c:
                    92:5a:0b:bb:8b:05:dd:44:fe:56:06:a8:be:2a:64:
                    98:b1:72:e5:4d:f9:e6:f3:c5:7c:36:77:d0:60:10:
                    23:0a:82:87:f0:c2:e0:21:66:42:b5:22:63:e3:a4:
                    20:27:31:78:5c:7b:bd:9b:0a:df:51:56:64:60:5b:
                    c6:4d:06:61:b4:20:f5:98:7f:1d:ab:b1:65:2f:ed:
                    18:a0:e3:30:f3:f6:cc:49:66:cd:e5:7c:e2:60:68:
                    08:36:26:22:c4:bf:7f:cf:60:a5:d2:e6:a2:e2:34:
                    f4:a5:60:c8:55:cf:ba:f4:2e:04:57:5f:7f:06:b7:
                    f2:89
                Exponent: 65537 (0x10001)
        X509v3 extensions:
            X509v3 Basic Constraints: 
                CA:FALSE
            X509v3 Subject Alternative Name: 
                IP Address:10.90.39.7, DNS:iccluster056.iccluster.epfl.ch
            X509v3 Subject Key Identifier: 
                BE:C1:F8:6F:7D:81:54:E1:CD:31:10:5A:73:07:B6:B4:69:19:24:09
    Signature Algorithm: sha256WithRSAEncryption
         b3:bd:04:6e:1f:4b:c4:a4:a4:65:64:b2:cd:a3:c3:ed:f0:fe:
         8f:3a:09:85:87:1c:f9:0f:d4:d9:43:65:f6:00:35:b1:ec:ba:
         15:17:1a:81:f6:3a:ae:8b:09:91:aa:48:c0:d9:03:3d:8f:c2:
         6e:40:44:4c:c4:79:dd:37:c2:19:13:26:29:ab:f4:46:e5:15:
         fe:94:8a:32:7d:62:e3:6a:23:17:38:5a:f2:10:9b:84:95:bb:
         1c:c4:ce:63:61:1f:9a:e5:16:fe:d3:ff:89:24:f9:41:70:e9:
         3d:46:df:f6:55:33:0e:03:e5:56:55:6b:be:95:b3:e1:cf:8e:
         c1:ce:47:f1:6b:ba:52:2d:65:12:ee:66:d2:11:3a:f1:c0:64:
         1b:58:fc:13:ad:cb:b8:9d:92:9b:0a:fe:82:27:2b:a0:10:6c:
         a8:e9:d1:4e:76:9f:ef:13:26:32:ef:4f:e2:25:2b:b1:98:37:
         09:41:67:ed:c5:53:d7:85:3b:b0:bf:6a:25:98:a5:fa:74:cc:
         40:4f:01:ac:26:6d:88:2f:1b:80:4c:a6:52:95:6a:71:4a:8d:
         bc:45:d9:20:c1:9e:fe:b7:14:ea:4a:33:12:17:46:b9:55:05:
         e2:34:c2:f6:9a:08:1b:eb:e2:af:66:e8:50:1d:f1:ac:c9:0c:
         d1:4a:4e:0e
-----BEGIN CERTIFICATE-----
MIIDkTCCAnmgAwIBAgIJAIBq/LVN8xKvMA0GCSqGSIb3DQEBCwUAMD0xCzAJBgNV
BAYTAnh4MQowCAYDVQQIDAF4MQowCAYDVQQKDAF4MQowCAYDVQQLDAF4MQowCAYD
VQQDDAF4MB4XDTE4MDUwMzA5MTMxNVoXDTE5MDUwMzA5MTMxNVowdDELMAkGA1UE
BhMCQ0gxCzAJBgNVBAgTAlZEMREwDwYDVQQHEwhMYXVzYW5uZTENMAsGA1UEChME
RVBGTDENMAsGA1UECxMETENBMTEnMCUGA1UEAxMeaWNjbHVzdGVyMDU2LmljY2x1
c3Rlci5lcGZsLmNoMIIBIjANBgkqhkiG9w0BAQEFAAOCAQ8AMIIBCgKCAQEAnDnp
0w8ieTz1cDfBXb7f+L6Z/8sUL0WDZ4qGy8cRx5tO7VT8+h2ax/s6xOVh5kb4oja8
xcYkzrtSDS4pGGM4/YJQsgo2An98pxikHDlQC1896stow0GvydvH9UbLJRUtWlAx
eR5EcmsSPA08g+OZJ/y7prfRI9o1Ty3f/0jnlz+NYyutS3ySWgu7iwXdRP5WBqi+
KmSYsXLlTfnm88V8NnfQYBAjCoKH8MLgIWZCtSJj46QgJzF4XHu9mwrfUVZkYFvG
TQZhtCD1mH8dq7FlL+0YoOMw8/bMSWbN5XziYGgINiYixL9/z2Cl0uai4jT0pWDI
Vc+69C4EV19/BrfyiQIDAQABo10wWzAJBgNVHRMEAjAAMC8GA1UdEQQoMCaHBApa
JweCHmljY2x1c3RlcjA1Ni5pY2NsdXN0ZXIuZXBmbC5jaDAdBgNVHQ4EFgQUvsH4
b32BVOHNMRBacwe2tGkZJAkwDQYJKoZIhvcNAQELBQADggEBALO9BG4fS8SkpGVk
ss2jw+3w/o86CYWHHPkP1NlDZfYANbHsuhUXGoH2Oq6LCZGqSMDZAz2Pwm5AREzE
ed03whkTJimr9EblFf6UijJ9YuNqIxc4WvIQm4SVuxzEzmNhH5rlFv7T/4kk+UFw
6T1G3/ZVMw4D5VZVa76Vs+HPjsHOR/FrulItZRLuZtIROvHAZBtY/BOty7idkpsK
/oInK6AQbKjp0U52n+8TJjLvT+IlK7GYNwlBZ+3FU9eFO7C/aiWYpfp0zEBPAawm
bYgvG4BMplKVanFKjbxF2SDBnv63FOpKMxIXRrlVBeI0wvaaCBvr4q9m6FAd8azJ
DNFKTg4=
-----END CERTIFICATE-----
