Certificate:
    Data:
        Version: 3 (0x2)
        Serial Number:
            ed:8f:a8:6c:98:85:fc:9d
    Signature Algorithm: sha256WithRSAEncryption
        Issuer: C=CH, ST=VD, O=EPFL, OU=LCA1, CN=MedCo
        Validity
            Not Before: Nov  7 12:36:41 2017 GMT
            Not After : Nov  7 12:36:41 2018 GMT
        Subject: C=CH, ST=VD, L=Lausanne, O=EPFL, OU=LCA1, CN=iccluster128.iccluster.epfl.ch
        Subject Public Key Info:
            Public Key Algorithm: rsaEncryption
                Public-Key: (2048 bit)
                Modulus:
                    00:f1:6d:c7:75:2f:86:22:52:9d:6c:7f:a3:5c:e5:
                    03:aa:15:8f:07:10:cf:51:7c:28:c2:21:6f:f1:a1:
                    c8:07:9e:49:71:00:3e:e0:e9:38:bb:75:0e:3b:83:
                    2d:b6:60:0e:b1:10:6a:94:f7:74:33:69:ef:ac:a3:
                    c5:e4:f4:96:47:ad:92:9c:f6:ae:95:d8:06:1a:08:
                    69:e1:51:2b:37:87:1c:61:67:2f:8e:74:44:45:12:
                    cb:14:e4:d8:e3:27:3f:98:ff:73:c0:67:b5:ce:f4:
                    c2:ec:9c:41:74:b6:75:c5:a6:29:e7:59:d1:53:f2:
                    83:c4:a9:41:8d:5f:26:19:b0:7b:72:45:09:bc:74:
                    5b:f8:28:87:67:3b:fa:09:07:c8:eb:db:1e:0e:b2:
                    39:07:79:62:51:0c:c1:e1:bb:89:47:d6:12:5b:b6:
                    24:fa:cc:78:61:54:e4:df:ad:cc:28:b2:68:3f:1c:
                    70:8f:ce:1b:5d:fd:b4:2d:d0:7f:ea:51:c5:7f:0f:
                    37:61:05:59:a9:46:c5:82:25:8a:d5:34:4c:af:1a:
                    a5:d7:3a:9a:a6:fa:2f:0c:76:a5:af:8b:fb:38:ca:
                    09:32:60:cc:af:4f:d4:6f:4e:92:af:7a:36:2a:21:
                    86:f1:85:ee:ab:fb:85:96:4b:c1:95:25:fc:e1:ee:
                    31:dd
                Exponent: 65537 (0x10001)
        X509v3 extensions:
            X509v3 Basic Constraints: 
                CA:FALSE
            X509v3 Subject Alternative Name: 
                IP Address:10.90.36.58, DNS:iccluster128.iccluster.epfl.ch
            X509v3 Subject Key Identifier: 
                D3:9C:8D:61:17:DD:06:29:AE:FD:BA:F9:C5:35:43:18:38:B1:D8:23
    Signature Algorithm: sha256WithRSAEncryption
         5e:4e:fb:52:4e:32:44:42:ea:b7:c4:e0:f7:d4:fd:c3:e5:da:
         fe:e7:ae:d6:5e:1d:ef:be:b1:26:3e:49:d7:96:e2:0d:bd:2c:
         c4:e5:fc:ea:7c:e4:c4:a2:ed:53:ba:6c:33:97:c2:ba:45:ff:
         f2:68:a1:07:d8:bd:9e:36:8d:7f:c9:d1:0b:0d:5b:5e:7c:53:
         cd:2a:4d:a5:48:b4:ea:6a:f7:8e:25:b1:81:5b:a3:42:81:0c:
         fc:85:15:2d:ee:31:b3:bd:85:a5:2c:28:79:d6:aa:2d:19:5b:
         55:4a:32:1a:c4:8b:be:d6:9f:57:1e:82:30:7b:51:f6:41:f1:
         84:e1:06:5c:88:01:e4:a7:cc:72:9d:1d:99:6b:65:aa:7d:90:
         5e:0c:b2:3d:e9:59:c6:7c:e5:b2:1f:f3:0e:79:d5:0c:fe:e1:
         a9:db:34:2d:0b:d6:aa:73:09:c2:70:a4:b5:e7:61:4e:c5:19:
         be:e4:91:7e:4f:db:63:49:87:d1:4e:b2:af:ad:8c:52:81:b7:
         0b:fe:0d:43:14:35:1b:a5:ed:4b:93:21:8a:4f:c1:46:bd:45:
         0e:07:2e:62:c7:da:12:e4:c0:76:49:c0:2f:dd:16:51:8a:e2:
         7a:ac:ac:de:00:29:45:d7:85:1f:86:9b:8e:0a:b4:e4:2e:92:
         f4:57:f3:5b
-----BEGIN CERTIFICATE-----
MIIDnDCCAoSgAwIBAgIJAO2PqGyYhfydMA0GCSqGSIb3DQEBCwUAMEgxCzAJBgNV
BAYTAkNIMQswCQYDVQQIDAJWRDENMAsGA1UECgwERVBGTDENMAsGA1UECwwETENB
MTEOMAwGA1UEAwwFTWVkQ28wHhcNMTcxMTA3MTIzNjQxWhcNMTgxMTA3MTIzNjQx
WjB0MQswCQYDVQQGEwJDSDELMAkGA1UECBMCVkQxETAPBgNVBAcTCExhdXNhbm5l
MQ0wCwYDVQQKEwRFUEZMMQ0wCwYDVQQLEwRMQ0ExMScwJQYDVQQDEx5pY2NsdXN0
ZXIxMjguaWNjbHVzdGVyLmVwZmwuY2gwggEiMA0GCSqGSIb3DQEBAQUAA4IBDwAw
ggEKAoIBAQDxbcd1L4YiUp1sf6Nc5QOqFY8HEM9RfCjCIW/xocgHnklxAD7g6Ti7
dQ47gy22YA6xEGqU93Qzae+so8Xk9JZHrZKc9q6V2AYaCGnhUSs3hxxhZy+OdERF
EssU5NjjJz+Y/3PAZ7XO9MLsnEF0tnXFpinnWdFT8oPEqUGNXyYZsHtyRQm8dFv4
KIdnO/oJB8jr2x4OsjkHeWJRDMHhu4lH1hJbtiT6zHhhVOTfrcwosmg/HHCPzhtd
/bQt0H/qUcV/DzdhBVmpRsWCJYrVNEyvGqXXOpqm+i8MdqWvi/s4ygkyYMyvT9Rv
TpKvejYqIYbxhe6r+4WWS8GVJfzh7jHdAgMBAAGjXTBbMAkGA1UdEwQCMAAwLwYD
VR0RBCgwJocEClokOoIeaWNjbHVzdGVyMTI4LmljY2x1c3Rlci5lcGZsLmNoMB0G
A1UdDgQWBBTTnI1hF90GKa79uvnFNUMYOLHYIzANBgkqhkiG9w0BAQsFAAOCAQEA
Xk77Uk4yRELqt8Tg99T9w+Xa/ueu1l4d776xJj5J15biDb0sxOX86nzkxKLtU7ps
M5fCukX/8mihB9i9njaNf8nRCw1bXnxTzSpNpUi06mr3jiWxgVujQoEM/IUVLe4x
s72FpSwoedaqLRlbVUoyGsSLvtafVx6CMHtR9kHxhOEGXIgB5KfMcp0dmWtlqn2Q
XgyyPelZxnzlsh/zDnnVDP7hqds0LQvWqnMJwnCktedhTsUZvuSRfk/bY0mH0U6y
r62MUoG3C/4NQxQ1G6XtS5Mhik/BRr1FDgcuYsfaEuTAdknAL90WUYrieqys3gAp
RdeFH4abjgq05C6S9FfzWw==
-----END CERTIFICATE-----
