Certificate:
    Data:
        Version: 3 (0x2)
        Serial Number:
            b7:2d:5f:79:70:4d:9c:47
    Signature Algorithm: sha256WithRSAEncryption
        Issuer: C=CH, ST=VD, O=EPFL, OU=LCA1, CN=MedCo
        Validity
            Not Before: Sep 24 13:33:37 2018 GMT
            Not After : Sep 24 13:33:37 2019 GMT
        Subject: C=CH, ST=VD, L=Lausanne, O=EPFL, OU=LCA1, CN=server1.domain.com
        Subject Public Key Info:
            Public Key Algorithm: rsaEncryption
                Public-Key: (2048 bit)
                Modulus:
                    00:b2:4a:da:8b:12:ee:70:7e:e9:a9:f3:ee:33:84:
                    fc:cb:c3:04:2f:89:7b:ac:9e:af:8d:c3:1f:0e:3f:
                    00:4c:a1:f5:c6:de:c4:1d:3f:06:4b:12:f2:10:65:
                    6d:32:c1:b2:9b:09:ac:31:51:80:9b:5d:3b:ac:cd:
                    11:c8:e1:ab:69:8b:99:2f:4d:46:d4:c7:44:93:b5:
                    6a:1a:c1:c8:6f:d8:66:63:cb:11:69:f5:23:29:35:
                    7e:62:b6:88:dd:b0:02:f7:0a:18:c4:41:ba:e5:50:
                    96:3c:b2:55:12:f7:f6:6e:d6:2a:94:10:0c:59:2a:
                    b9:cf:d0:f6:a8:d4:3c:3c:b1:81:64:6c:85:fb:b5:
                    57:4a:66:29:43:fa:61:92:ba:ef:6b:a2:00:47:5e:
                    6c:83:79:f8:91:4b:38:44:62:a4:49:3d:2b:c1:11:
                    11:5e:50:f1:dd:d5:23:55:49:61:8d:f2:b2:89:06:
                    4e:8c:67:9a:b1:51:e5:95:dd:60:18:a7:fe:3e:1b:
                    9e:03:b8:35:e3:8e:d6:71:d9:d3:e6:a3:2c:aa:3f:
                    e8:46:5e:42:28:8e:72:4b:2b:dc:fe:36:f5:0d:97:
                    00:0c:9d:99:54:b7:0d:24:ec:d3:0d:b7:d0:42:7a:
                    24:bb:e0:5d:51:8b:f9:70:36:7a:57:ee:99:c7:fe:
                    0f:71
                Exponent: 65537 (0x10001)
        X509v3 extensions:
            X509v3 Basic Constraints: 
                CA:FALSE
            X509v3 Subject Alternative Name: 
                IP Address:1.1.1.1, DNS:server1.domain.com
            X509v3 Subject Key Identifier: 
                A1:A6:12:83:A5:56:8F:4E:E1:65:32:74:58:14:12:12:60:9D:EB:37
    Signature Algorithm: sha256WithRSAEncryption
         09:32:5a:55:6b:0f:5c:81:59:9f:bd:b8:6a:8a:8e:4b:4a:34:
         07:31:bf:00:43:46:d1:e5:4d:a7:31:1e:77:d3:70:93:69:98:
         91:bb:ef:bc:9e:90:dc:68:8e:84:43:0f:de:60:cb:61:5d:a9:
         17:51:0a:0f:42:79:de:55:f1:42:4d:2a:1c:df:a0:2e:bb:18:
         92:4a:98:1e:cc:42:7f:49:5f:90:42:bb:77:cd:6f:2e:46:b1:
         9d:92:ac:e2:6f:db:0d:94:6e:b3:b4:d2:6d:02:47:ef:10:ad:
         20:03:8c:f8:29:1e:20:51:21:0b:65:63:08:d1:fa:70:04:f1:
         e8:a2:87:0f:94:ef:b5:a1:44:3d:a2:6e:cd:69:6a:c0:4d:2d:
         b0:38:4a:20:61:58:7b:41:85:ab:67:ee:81:34:89:00:3f:4f:
         41:6c:83:ce:46:5d:31:e2:67:e7:e3:f7:b1:71:96:29:f8:2e:
         03:dd:7e:b5:b8:05:bd:c1:d3:1c:a7:11:9e:a0:f1:b1:52:31:
         85:cc:36:26:51:96:d0:19:73:61:3b:d2:8f:29:c9:46:3d:f2:
         17:90:fc:4c:c1:12:6f:81:38:84:88:dc:26:64:c7:d6:01:3b:
         8d:c1:8d:32:70:ca:da:bc:f9:ea:f2:46:9b:23:57:8c:90:49:
         21:78:36:cd
-----BEGIN CERTIFICATE-----
MIIDhDCCAmygAwIBAgIJALctX3lwTZxHMA0GCSqGSIb3DQEBCwUAMEgxCzAJBgNV
BAYTAkNIMQswCQYDVQQIDAJWRDENMAsGA1UECgwERVBGTDENMAsGA1UECwwETENB
MTEOMAwGA1UEAwwFTWVkQ28wHhcNMTgwOTI0MTMzMzM3WhcNMTkwOTI0MTMzMzM3
WjBoMQswCQYDVQQGEwJDSDELMAkGA1UECBMCVkQxETAPBgNVBAcTCExhdXNhbm5l
MQ0wCwYDVQQKEwRFUEZMMQ0wCwYDVQQLEwRMQ0ExMRswGQYDVQQDExJzZXJ2ZXIx
LmRvbWFpbi5jb20wggEiMA0GCSqGSIb3DQEBAQUAA4IBDwAwggEKAoIBAQCyStqL
Eu5wfump8+4zhPzLwwQviXusnq+Nwx8OPwBMofXG3sQdPwZLEvIQZW0ywbKbCawx
UYCbXTuszRHI4atpi5kvTUbUx0STtWoawchv2GZjyxFp9SMpNX5itojdsAL3ChjE
QbrlUJY8slUS9/Zu1iqUEAxZKrnP0Pao1Dw8sYFkbIX7tVdKZilD+mGSuu9rogBH
XmyDefiRSzhEYqRJPSvBERFeUPHd1SNVSWGN8rKJBk6MZ5qxUeWV3WAYp/4+G54D
uDXjjtZx2dPmoyyqP+hGXkIojnJLK9z+NvUNlwAMnZlUtw0k7NMNt9BCeiS74F1R
i/lwNnpX7pnH/g9xAgMBAAGjUTBPMAkGA1UdEwQCMAAwIwYDVR0RBBwwGocEAQEB
AYISc2VydmVyMS5kb21haW4uY29tMB0GA1UdDgQWBBShphKDpVaPTuFlMnRYFBIS
YJ3rNzANBgkqhkiG9w0BAQsFAAOCAQEACTJaVWsPXIFZn724aoqOS0o0BzG/AENG
0eVNpzEed9Nwk2mYkbvvvJ6Q3GiOhEMP3mDLYV2pF1EKD0J53lXxQk0qHN+gLrsY
kkqYHsxCf0lfkEK7d81vLkaxnZKs4m/bDZRus7TSbQJH7xCtIAOM+CkeIFEhC2Vj
CNH6cATx6KKHD5TvtaFEPaJuzWlqwE0tsDhKIGFYe0GFq2fugTSJAD9PQWyDzkZd
MeJn5+P3sXGWKfguA91+tbgFvcHTHKcRnqDxsVIxhcw2JlGW0BlzYTvSjynJRj3y
F5D8TMESb4E4hIjcJmTH1gE7jcGNMnDK2rz56vJGmyNXjJBJIXg2zQ==
-----END CERTIFICATE-----
