Certificate:
    Data:
        Version: 3 (0x2)
        Serial Number:
            a7:9d:67:6a:3b:54:c6:20
    Signature Algorithm: sha256WithRSAEncryption
        Issuer: C=CH, ST=VD, O=EPFL, OU=LCA1, CN=MedCo
        Validity
            Not Before: Jun 28 15:36:38 2018 GMT
            Not After : Jun 28 15:36:38 2019 GMT
        Subject: C=CH, ST=VD, L=Lausanne, O=EPFL, OU=LCA1, CN=iccluster032.iccluster.epfl.ch
        Subject Public Key Info:
            Public Key Algorithm: rsaEncryption
                Public-Key: (2048 bit)
                Modulus:
                    00:8b:66:e4:07:5f:ed:e3:8f:f7:46:1c:5c:13:ff:
                    30:eb:91:af:0e:d7:54:7a:f8:ae:5c:b2:ec:dc:36:
                    a0:a7:9b:89:aa:cb:b0:b6:6b:a6:8c:f2:1b:9f:73:
                    11:9e:e2:ac:52:f2:9a:bc:f4:9e:e6:98:f1:af:aa:
                    12:83:5c:d7:bf:96:10:db:33:e3:4a:07:d7:66:df:
                    51:e3:f0:5c:21:8a:8e:80:a0:1a:29:d8:fa:a5:27:
                    dc:49:6e:52:f2:20:af:74:d5:c0:ce:b9:d7:7f:56:
                    95:36:b6:0a:aa:c5:d5:ae:8d:d2:58:b5:2f:46:44:
                    71:6e:12:8a:27:12:41:c3:a0:11:f3:04:ad:0e:77:
                    03:46:0c:1d:38:ee:7d:f7:91:a7:49:af:45:b6:67:
                    80:26:c1:54:3c:a2:f9:a1:c5:30:83:32:1b:88:63:
                    7d:54:3b:c1:12:e2:99:5e:2c:d5:09:3e:1b:95:48:
                    89:63:32:0c:2c:5c:17:6e:38:e5:de:69:15:26:30:
                    ce:a7:39:14:ab:cc:3e:d2:e5:e0:84:ef:03:7c:3f:
                    c0:a5:d3:8e:06:c6:d0:b3:32:7b:3b:ee:2f:f3:28:
                    41:5e:c3:48:56:5b:a1:0c:9b:99:46:43:fd:30:46:
                    bb:17:94:95:9b:89:87:06:b9:8a:52:5e:21:ad:b4:
                    e5:89
                Exponent: 65537 (0x10001)
        X509v3 extensions:
            X509v3 Basic Constraints: 
                CA:FALSE
            X509v3 Subject Alternative Name: 
                IP Address:10.90.38.8, DNS:iccluster032.iccluster.epfl.ch
            X509v3 Subject Key Identifier: 
                AE:76:95:3E:D9:8E:A3:B2:FA:16:57:ED:05:3A:A2:7D:01:17:1A:F1
    Signature Algorithm: sha256WithRSAEncryption
         5d:ca:b2:a0:c0:40:38:1b:04:78:75:a3:26:53:f0:da:82:b5:
         36:7d:12:97:e6:d1:dd:bb:0a:4a:51:f1:4d:12:2c:4f:a9:af:
         4c:35:20:27:30:dc:75:b4:d5:29:4a:84:6a:59:0b:65:c5:c3:
         2a:90:d6:14:3c:f8:18:62:de:1b:39:fc:ca:ab:9e:86:ce:2b:
         5f:01:35:8c:6b:82:6d:89:fe:ff:cc:2c:be:76:d1:01:de:e2:
         8f:db:ea:11:bb:82:5e:07:b9:dc:36:e6:8f:dd:0b:93:b0:5f:
         bd:02:f0:45:d9:cb:7e:6a:47:8c:71:31:b3:af:44:bb:d0:b8:
         9b:55:5f:f8:9d:1c:ed:69:2c:04:1a:13:d1:be:54:98:0a:50:
         b0:92:e7:d8:49:2a:88:bd:2f:11:c3:38:39:3c:c9:ed:1a:c8:
         ed:85:1b:91:79:31:58:8f:29:73:84:e1:8a:cf:2e:fa:26:db:
         f5:1b:2c:1d:38:8e:9d:2c:a1:c4:c8:16:09:38:3e:1c:48:f7:
         fc:82:a1:0e:8c:33:12:02:fa:22:d8:ea:7c:4f:7a:76:68:dc:
         51:aa:f8:97:69:cf:10:3b:2c:50:8a:28:21:9a:d9:a4:c9:e3:
         b0:92:e9:7c:c6:67:8a:15:db:ac:32:b9:df:d2:46:c0:f4:1d:
         37:8c:9f:d2
-----BEGIN CERTIFICATE-----
MIIDnDCCAoSgAwIBAgIJAKedZ2o7VMYgMA0GCSqGSIb3DQEBCwUAMEgxCzAJBgNV
BAYTAkNIMQswCQYDVQQIDAJWRDENMAsGA1UECgwERVBGTDENMAsGA1UECwwETENB
MTEOMAwGA1UEAwwFTWVkQ28wHhcNMTgwNjI4MTUzNjM4WhcNMTkwNjI4MTUzNjM4
WjB0MQswCQYDVQQGEwJDSDELMAkGA1UECBMCVkQxETAPBgNVBAcTCExhdXNhbm5l
MQ0wCwYDVQQKEwRFUEZMMQ0wCwYDVQQLEwRMQ0ExMScwJQYDVQQDEx5pY2NsdXN0
ZXIwMzIuaWNjbHVzdGVyLmVwZmwuY2gwggEiMA0GCSqGSIb3DQEBAQUAA4IBDwAw
ggEKAoIBAQCLZuQHX+3jj/dGHFwT/zDrka8O11R6+K5csuzcNqCnm4mqy7C2a6aM
8hufcxGe4qxS8pq89J7mmPGvqhKDXNe/lhDbM+NKB9dm31Hj8Fwhio6AoBop2Pql
J9xJblLyIK901cDOudd/VpU2tgqqxdWujdJYtS9GRHFuEoonEkHDoBHzBK0OdwNG
DB047n33kadJr0W2Z4AmwVQ8ovmhxTCDMhuIY31UO8ES4pleLNUJPhuVSIljMgws
XBduOOXeaRUmMM6nORSrzD7S5eCE7wN8P8Cl044GxtCzMns77i/zKEFew0hWW6EM
m5lGQ/0wRrsXlJWbiYcGuYpSXiGttOWJAgMBAAGjXTBbMAkGA1UdEwQCMAAwLwYD
VR0RBCgwJocEClomCIIeaWNjbHVzdGVyMDMyLmljY2x1c3Rlci5lcGZsLmNoMB0G
A1UdDgQWBBSudpU+2Y6jsvoWV+0FOqJ9ARca8TANBgkqhkiG9w0BAQsFAAOCAQEA
XcqyoMBAOBsEeHWjJlPw2oK1Nn0Sl+bR3bsKSlHxTRIsT6mvTDUgJzDcdbTVKUqE
alkLZcXDKpDWFDz4GGLeGzn8yquehs4rXwE1jGuCbYn+/8wsvnbRAd7ij9vqEbuC
Xge53Dbmj90Lk7BfvQLwRdnLfmpHjHExs69Eu9C4m1Vf+J0c7WksBBoT0b5UmApQ
sJLn2EkqiL0vEcM4OTzJ7RrI7YUbkXkxWI8pc4This8u+ibb9RssHTiOnSyhxMgW
CTg+HEj3/IKhDowzEgL6ItjqfE96dmjcUar4l2nPEDssUIooIZrZpMnjsJLpfMZn
ihXbrDK539JGwPQdN4yf0g==
-----END CERTIFICATE-----
