Certificate:
    Data:
        Version: 3 (0x2)
        Serial Number: 17153950821878998990 (0xee0f1363109e27ce)
    Signature Algorithm: sha256WithRSAEncryption
        Issuer: C=CH, ST=VD, O=EPFL, OU=LCA1, CN=MedCO
        Validity
            Not Before: Aug 20 14:23:52 2018 GMT
            Not After : Aug 19 14:23:52 2021 GMT
        Subject: C=CH, ST=VD, O=EPFL, OU=LCA1, CN=MedCO
        Subject Public Key Info:
            Public Key Algorithm: rsaEncryption
                Public-Key: (2048 bit)
                Modulus:
                    00:ac:cc:68:23:0c:40:df:80:d6:9f:fc:8a:a6:4f:
                    49:e6:d6:79:ec:e8:55:95:d3:ee:a5:12:7d:55:36:
                    c6:81:e9:23:47:ba:b0:ee:4c:ea:06:76:81:c1:2e:
                    83:b1:7a:8c:17:1f:30:79:7e:0b:67:43:48:68:c3:
                    dd:9d:68:7d:fd:e3:85:af:82:d2:68:28:dc:9b:17:
                    96:64:78:74:2e:3e:58:88:9d:29:85:39:b2:39:69:
                    a6:de:6a:f1:06:5c:7d:b1:36:f0:ab:18:6e:a6:d5:
                    48:b4:f4:d7:2a:6e:fc:8f:a7:95:23:da:a2:0b:53:
                    bd:c2:2c:12:ab:d0:55:02:e6:74:95:82:c9:8e:d5:
                    fa:23:bf:e2:c7:c2:1a:71:fd:cc:e9:12:6c:e3:7e:
                    d1:c5:93:49:81:bb:84:6d:0d:1d:a9:e4:26:49:84:
                    c4:e7:68:d5:c7:6c:b0:5b:1f:21:9d:31:d7:ef:b7:
                    0b:19:12:8a:db:5e:5b:6d:4e:f5:42:04:f6:8d:41:
                    98:82:a8:d4:81:bd:9e:0f:41:74:05:fd:93:02:1a:
                    89:b8:cb:eb:af:a8:7d:91:8d:59:fd:fe:b1:a5:32:
                    af:66:08:48:01:be:6e:83:1b:18:b3:22:fa:24:a9:
                    a2:dd:c7:66:ff:a0:f4:23:bc:00:a0:10:13:81:20:
                    c1:71
                Exponent: 65537 (0x10001)
        X509v3 extensions:
            X509v3 Subject Key Identifier: 
                D8:7C:EE:05:11:C9:0D:DA:8B:C2:5B:7A:A6:0A:4A:0C:99:A1:E3:FE
            X509v3 Authority Key Identifier: 
                keyid:D8:7C:EE:05:11:C9:0D:DA:8B:C2:5B:7A:A6:0A:4A:0C:99:A1:E3:FE

            X509v3 Basic Constraints: 
                CA:TRUE
    Signature Algorithm: sha256WithRSAEncryption
         0a:69:17:c4:b4:ee:7a:20:22:f2:ba:25:78:40:bf:1d:28:cf:
         b1:87:0e:4d:77:19:af:58:20:ce:3a:b8:35:7b:b2:ab:9c:34:
         9f:cc:a1:43:e2:81:79:b6:ba:8b:8b:fd:14:c2:6c:dc:2b:eb:
         9e:97:57:32:14:1e:b1:69:7e:9a:91:97:53:be:e8:43:d1:a1:
         57:65:28:95:bc:f0:9c:03:12:26:ab:65:94:bf:0b:16:92:d2:
         6f:2c:34:7c:4c:de:aa:18:65:df:b5:ee:9b:04:41:3f:a9:8b:
         87:25:2e:d8:51:73:28:d5:0d:84:d6:f1:13:c0:09:46:59:86:
         15:f3:d1:df:03:e3:ab:44:49:08:68:cc:67:93:aa:3e:eb:3b:
         33:17:1d:9b:e3:df:12:1a:e6:df:34:4d:70:69:8d:0e:e3:71:
         21:9d:f6:d3:5a:49:ec:9e:c0:da:aa:3f:d8:1f:fd:41:32:81:
         03:78:55:56:c6:17:42:c3:ea:88:5f:cd:c0:c0:bf:c9:f1:6f:
         59:5b:ee:6d:b7:b6:98:76:d8:69:2a:bc:a5:65:dc:7a:b1:01:
         75:99:d5:b9:9c:a5:ce:f0:98:9d:41:e5:bc:c4:e5:94:a2:21:
         a3:96:d5:f6:39:9c:4a:62:ed:72:5d:84:64:1e:cf:33:eb:5d:
         de:ce:fe:02
-----BEGIN CERTIFICATE-----
MIIDYzCCAkugAwIBAgIJAO4PE2MQnifOMA0GCSqGSIb3DQEBCwUAMEgxCzAJBgNV
BAYTAkNIMQswCQYDVQQIDAJWRDENMAsGA1UECgwERVBGTDENMAsGA1UECwwETENB
MTEOMAwGA1UEAwwFTWVkQ08wHhcNMTgwODIwMTQyMzUyWhcNMjEwODE5MTQyMzUy
WjBIMQswCQYDVQQGEwJDSDELMAkGA1UECAwCVkQxDTALBgNVBAoMBEVQRkwxDTAL
BgNVBAsMBExDQTExDjAMBgNVBAMMBU1lZENPMIIBIjANBgkqhkiG9w0BAQEFAAOC
AQ8AMIIBCgKCAQEArMxoIwxA34DWn/yKpk9J5tZ57OhVldPupRJ9VTbGgekjR7qw
7kzqBnaBwS6DsXqMFx8weX4LZ0NIaMPdnWh9/eOFr4LSaCjcmxeWZHh0Lj5YiJ0p
hTmyOWmm3mrxBlx9sTbwqxhuptVItPTXKm78j6eVI9qiC1O9wiwSq9BVAuZ0lYLJ
jtX6I7/ix8Iacf3M6RJs437RxZNJgbuEbQ0dqeQmSYTE52jVx2ywWx8hnTHX77cL
GRKK215bbU71QgT2jUGYgqjUgb2eD0F0Bf2TAhqJuMvrr6h9kY1Z/f6xpTKvZghI
Ab5ugxsYsyL6JKmi3cdm/6D0I7wAoBATgSDBcQIDAQABo1AwTjAdBgNVHQ4EFgQU
2HzuBRHJDdqLwlt6pgpKDJmh4/4wHwYDVR0jBBgwFoAU2HzuBRHJDdqLwlt6pgpK
DJmh4/4wDAYDVR0TBAUwAwEB/zANBgkqhkiG9w0BAQsFAAOCAQEACmkXxLTueiAi
8roleEC/HSjPsYcOTXcZr1ggzjq4NXuyq5w0n8yhQ+KBeba6i4v9FMJs3CvrnpdX
MhQesWl+mpGXU77oQ9GhV2UolbzwnAMSJqtllL8LFpLSbyw0fEzeqhhl37XumwRB
P6mLhyUu2FFzKNUNhNbxE8AJRlmGFfPR3wPjq0RJCGjMZ5OqPus7Mxcdm+PfEhrm
3zRNcGmNDuNxIZ3201pJ7J7A2qo/2B/9QTKBA3hVVsYXQsPqiF/NwMC/yfFvWVvu
bbe2mHbYaSq8pWXcerEBdZnVuZylzvCYnUHlvMTllKIho5bV9jmcSmLtcl2EZB7P
M+td3s7+Ag==
-----END CERTIFICATE-----
