Certificate:
    Data:
        Version: 3 (0x2)
        Serial Number: 15168885656312915443 (0xd282b522df0ca5f3)
    Signature Algorithm: sha256WithRSAEncryption
        Issuer: C=xx, ST=x, O=x, OU=x, CN=x
        Validity
            Not Before: Apr 12 12:51:01 2018 GMT
            Not After : Apr 12 12:51:01 2019 GMT
        Subject: C=CH, ST=VD, L=Lausanne, O=EPFL, OU=LCA1, CN=iccluster031.iccluster.epfl.ch
        Subject Public Key Info:
            Public Key Algorithm: rsaEncryption
                Public-Key: (2048 bit)
                Modulus:
                    00:a6:e3:5f:20:2c:ff:9d:81:af:85:9e:8a:ea:c6:
                    e9:c3:7d:c2:c7:73:da:da:b1:4a:f7:5f:15:61:90:
                    ac:2d:39:03:3a:64:54:fc:11:f2:4a:da:cc:07:ee:
                    9f:53:b6:f6:55:6c:ae:90:15:09:e9:4c:45:4a:90:
                    ec:90:c6:56:0d:e8:6e:39:e1:c7:db:5f:3a:bc:82:
                    b1:36:52:29:b7:e7:0c:fa:1f:27:47:9e:32:a8:bc:
                    e8:1c:7e:10:cb:d2:54:0a:7d:9b:0e:2c:73:a4:51:
                    2b:94:ed:bb:3a:11:92:9f:4c:c1:c7:b3:18:38:a3:
                    ab:03:8b:25:d1:e9:4a:e7:02:cc:c0:10:e1:7f:60:
                    e2:2c:09:ae:68:9e:a0:68:47:c3:fd:25:e2:72:6b:
                    ca:e7:fd:7f:51:ac:61:db:c3:79:e2:07:a5:d7:d4:
                    38:50:31:04:e6:d9:90:f7:a4:e9:5d:8d:02:14:e1:
                    e2:d7:bf:15:60:8a:0f:a4:88:c5:7c:2d:37:ba:8f:
                    3b:46:ca:6c:53:e4:71:a8:27:aa:74:b8:50:d0:e4:
                    76:c1:2e:dc:a9:e8:0f:89:b7:d5:36:03:c9:bc:1b:
                    0d:fe:96:c4:c3:6a:90:d2:76:84:d0:df:18:fb:10:
                    6a:33:e7:93:17:d4:ed:78:5c:e4:8c:bb:81:18:66:
                    6d:e3
                Exponent: 65537 (0x10001)
        X509v3 extensions:
            X509v3 Basic Constraints: 
                CA:FALSE
            X509v3 Subject Alternative Name: 
                IP Address:10.90.38.7, DNS:iccluster031.iccluster.epfl.ch
            X509v3 Subject Key Identifier: 
                3D:37:0E:2D:04:3D:83:A4:87:90:B5:08:02:E9:BF:58:5F:4E:60:19
    Signature Algorithm: sha256WithRSAEncryption
         99:ca:01:f2:71:0e:d8:bd:ba:97:b8:d2:1f:09:74:ac:9d:85:
         cb:62:29:83:93:80:a2:d7:6c:ba:87:8a:2d:28:f7:ff:c3:72:
         fe:b9:71:95:0c:05:99:c7:00:9d:5c:87:ea:8a:bf:5a:46:7d:
         83:51:ef:15:44:fc:e4:4e:1f:a6:9c:3f:16:23:8b:32:92:5b:
         11:43:22:07:fc:3d:5a:a0:7c:7d:c4:4f:96:cb:13:fb:8c:83:
         27:40:a3:3b:16:a0:14:55:a5:e8:ed:c9:91:3e:20:2a:d2:50:
         a5:ad:4a:2c:e0:ce:7f:5f:2d:b8:98:d3:3c:42:c9:92:b5:b0:
         cd:0b:dc:4a:92:24:f1:2f:a4:11:23:df:59:6e:b0:05:41:4f:
         16:5e:e9:71:f7:77:e2:fc:22:64:29:82:17:30:55:d2:4e:91:
         b7:8e:f6:e2:12:01:de:cd:3b:05:16:2e:fb:b6:14:db:76:04:
         b7:85:19:34:46:cb:df:72:b0:c3:79:78:1b:1c:2c:7f:35:49:
         ab:16:d4:6c:50:41:6c:ec:c7:01:00:c9:ed:26:83:b6:56:27:
         c0:cb:91:51:81:48:4d:9e:02:54:7e:60:90:15:6b:ee:c9:61:
         c5:23:34:11:b4:ac:ad:0c:22:be:5f:ab:75:f6:b0:d2:89:c6:
         b1:4d:f4:85
-----BEGIN CERTIFICATE-----
MIIDkTCCAnmgAwIBAgIJANKCtSLfDKXzMA0GCSqGSIb3DQEBCwUAMD0xCzAJBgNV
BAYTAnh4MQowCAYDVQQIDAF4MQowCAYDVQQKDAF4MQowCAYDVQQLDAF4MQowCAYD
VQQDDAF4MB4XDTE4MDQxMjEyNTEwMVoXDTE5MDQxMjEyNTEwMVowdDELMAkGA1UE
BhMCQ0gxCzAJBgNVBAgTAlZEMREwDwYDVQQHEwhMYXVzYW5uZTENMAsGA1UEChME
RVBGTDENMAsGA1UECxMETENBMTEnMCUGA1UEAxMeaWNjbHVzdGVyMDMxLmljY2x1
c3Rlci5lcGZsLmNoMIIBIjANBgkqhkiG9w0BAQEFAAOCAQ8AMIIBCgKCAQEApuNf
ICz/nYGvhZ6K6sbpw33Cx3Pa2rFK918VYZCsLTkDOmRU/BHyStrMB+6fU7b2VWyu
kBUJ6UxFSpDskMZWDehuOeHH2186vIKxNlIpt+cM+h8nR54yqLzoHH4Qy9JUCn2b
DixzpFErlO27OhGSn0zBx7MYOKOrA4sl0elK5wLMwBDhf2DiLAmuaJ6gaEfD/SXi
cmvK5/1/Uaxh28N54gel19Q4UDEE5tmQ96TpXY0CFOHi178VYIoPpIjFfC03uo87
RspsU+RxqCeqdLhQ0OR2wS7cqegPibfVNgPJvBsN/pbEw2qQ0naE0N8Y+xBqM+eT
F9TteFzkjLuBGGZt4wIDAQABo10wWzAJBgNVHRMEAjAAMC8GA1UdEQQoMCaHBApa
JgeCHmljY2x1c3RlcjAzMS5pY2NsdXN0ZXIuZXBmbC5jaDAdBgNVHQ4EFgQUPTcO
LQQ9g6SHkLUIAum/WF9OYBkwDQYJKoZIhvcNAQELBQADggEBAJnKAfJxDti9upe4
0h8JdKydhctiKYOTgKLXbLqHii0o9//Dcv65cZUMBZnHAJ1ch+qKv1pGfYNR7xVE
/OROH6acPxYjizKSWxFDIgf8PVqgfH3ET5bLE/uMgydAozsWoBRVpejtyZE+ICrS
UKWtSizgzn9fLbiY0zxCyZK1sM0L3EqSJPEvpBEj31lusAVBTxZe6XH3d+L8ImQp
ghcwVdJOkbeO9uISAd7NOwUWLvu2FNt2BLeFGTRGy99ysMN5eBscLH81SasW1GxQ
QWzsxwEAye0mg7ZWJ8DLkVGBSE2eAlR+YJAVa+7JYcUjNBG0rK0MIr5fq3X2sNKJ
xrFN9IU=
-----END CERTIFICATE-----
