Certificate:
    Data:
        Version: 3 (0x2)
        Serial Number: 15168885656312915442 (0xd282b522df0ca5f2)
    Signature Algorithm: sha256WithRSAEncryption
        Issuer: C=xx, ST=x, O=x, OU=x, CN=x
        Validity
            Not Before: Apr 12 12:50:45 2018 GMT
            Not After : Apr 11 12:50:45 2021 GMT
        Subject: C=xx, ST=x, O=x, OU=x, CN=x
        Subject Public Key Info:
            Public Key Algorithm: rsaEncryption
                Public-Key: (2048 bit)
                Modulus:
                    00:dc:01:e8:f3:5a:7c:b0:23:2b:f3:f4:5f:cf:41:
                    47:54:3c:07:a3:8c:dc:ed:47:99:a3:17:c4:75:1e:
                    60:2c:95:e4:79:65:14:ea:51:9e:2d:e6:2c:a2:53:
                    35:28:df:a6:7d:b8:7a:3e:fa:d6:e3:28:e3:87:0f:
                    cb:f7:0d:50:06:de:1a:c8:29:2b:9c:32:66:f1:67:
                    84:82:a5:ba:ae:37:fd:38:ca:f8:d6:f8:3a:89:be:
                    02:c7:e8:7d:39:16:12:f4:56:16:b8:46:a0:de:f4:
                    23:53:8f:01:0c:8c:a5:3e:39:b9:f5:fd:63:1c:c6:
                    61:1e:95:01:bd:dc:ca:50:12:ea:f4:b9:b8:87:83:
                    ce:c4:98:a4:8c:20:6e:80:2d:9f:a0:f4:17:de:cb:
                    eb:57:d2:21:70:87:10:9c:c9:d3:bc:e9:5d:38:54:
                    e3:d9:fa:e8:59:12:89:06:66:fa:ad:70:79:2d:2a:
                    00:8f:7f:09:87:0f:56:05:c2:ba:d4:d1:08:0b:aa:
                    6e:c0:18:92:96:10:bf:e0:26:f9:dc:e2:f2:d9:b6:
                    9c:d4:89:c0:ec:2b:20:a8:2e:41:9a:c9:09:08:19:
                    fb:2c:5d:bd:e8:b0:2c:a5:9f:92:40:44:7d:8f:63:
                    db:b1:b2:69:34:b6:31:2c:a2:80:6c:cc:b3:7c:b3:
                    dc:95
                Exponent: 65537 (0x10001)
        X509v3 extensions:
            X509v3 Subject Key Identifier: 
                D6:15:CE:F7:EF:AB:4E:1D:EA:4E:07:FF:2E:9C:C9:BF:77:00:60:F6
            X509v3 Authority Key Identifier: 
                keyid:D6:15:CE:F7:EF:AB:4E:1D:EA:4E:07:FF:2E:9C:C9:BF:77:00:60:F6

            X509v3 Basic Constraints: 
                CA:TRUE
    Signature Algorithm: sha256WithRSAEncryption
         57:26:80:45:44:a3:5e:c2:14:8f:33:58:5d:6a:2a:be:4e:2b:
         fc:cb:2f:98:7c:0d:7f:99:1f:26:dd:3a:66:32:41:59:b2:73:
         32:22:48:2f:e8:3d:29:83:22:ea:cd:76:b9:ea:da:ee:56:41:
         87:9b:6f:31:ee:6a:2d:72:9a:43:55:53:0c:6c:31:88:ea:00:
         95:17:42:59:ea:08:b6:a0:d8:72:18:52:3c:05:67:3e:f3:07:
         be:f1:ab:cd:53:f8:b5:02:20:8d:9d:e1:99:25:c8:e5:32:bf:
         d8:30:3b:36:fe:37:01:8a:1f:83:d4:3e:5e:62:ea:37:d2:92:
         17:a0:bc:49:bc:15:4a:2b:b0:fe:d2:f9:89:ff:35:6b:cf:9d:
         64:90:63:07:19:52:53:c1:42:09:0b:98:a9:25:48:7d:a5:47:
         f5:8f:ce:42:78:8c:f2:51:67:16:6a:76:1d:30:d3:c2:cc:42:
         7f:95:66:f8:bd:c5:2b:78:97:2f:57:35:d6:a4:9c:a4:96:97:
         d1:f8:21:57:9a:05:9b:fa:06:37:f5:49:c6:f7:4d:d4:3f:ad:
         7d:c4:b0:5f:12:13:1b:62:c8:b4:ba:11:4f:59:59:f2:a7:36:
         95:19:cd:06:7f:a6:73:b0:43:d1:b6:57:23:f0:e3:c6:75:55:
         3b:2d:38:f9
-----BEGIN CERTIFICATE-----
MIIDTTCCAjWgAwIBAgIJANKCtSLfDKXyMA0GCSqGSIb3DQEBCwUAMD0xCzAJBgNV
BAYTAnh4MQowCAYDVQQIDAF4MQowCAYDVQQKDAF4MQowCAYDVQQLDAF4MQowCAYD
VQQDDAF4MB4XDTE4MDQxMjEyNTA0NVoXDTIxMDQxMTEyNTA0NVowPTELMAkGA1UE
BhMCeHgxCjAIBgNVBAgMAXgxCjAIBgNVBAoMAXgxCjAIBgNVBAsMAXgxCjAIBgNV
BAMMAXgwggEiMA0GCSqGSIb3DQEBAQUAA4IBDwAwggEKAoIBAQDcAejzWnywIyvz
9F/PQUdUPAejjNztR5mjF8R1HmAsleR5ZRTqUZ4t5iyiUzUo36Z9uHo++tbjKOOH
D8v3DVAG3hrIKSucMmbxZ4SCpbquN/04yvjW+DqJvgLH6H05FhL0Vha4RqDe9CNT
jwEMjKU+Obn1/WMcxmEelQG93MpQEur0ubiHg87EmKSMIG6ALZ+g9Bfey+tX0iFw
hxCcydO86V04VOPZ+uhZEokGZvqtcHktKgCPfwmHD1YFwrrU0QgLqm7AGJKWEL/g
Jvnc4vLZtpzUicDsKyCoLkGayQkIGfssXb3osCyln5JARH2PY9uxsmk0tjEsooBs
zLN8s9yVAgMBAAGjUDBOMB0GA1UdDgQWBBTWFc7376tOHepOB/8unMm/dwBg9jAf
BgNVHSMEGDAWgBTWFc7376tOHepOB/8unMm/dwBg9jAMBgNVHRMEBTADAQH/MA0G
CSqGSIb3DQEBCwUAA4IBAQBXJoBFRKNewhSPM1hdaiq+Tiv8yy+YfA1/mR8m3Tpm
MkFZsnMyIkgv6D0pgyLqzXa56truVkGHm28x7motcppDVVMMbDGI6gCVF0JZ6gi2
oNhyGFI8BWc+8we+8avNU/i1AiCNneGZJcjlMr/YMDs2/jcBih+D1D5eYuo30pIX
oLxJvBVKK7D+0vmJ/zVrz51kkGMHGVJTwUIJC5ipJUh9pUf1j85CeIzyUWcWanYd
MNPCzEJ/lWb4vcUreJcvVzXWpJyklpfR+CFXmgWb+gY39UnG903UP619xLBfEhMb
Ysi0uhFPWVnypzaVGc0Gf6ZzsEPRtlcj8OPGdVU7LTj5
-----END CERTIFICATE-----
