Certificate:
    Data:
        Version: 3 (0x2)
        Serial Number: 17714849606439469992 (0xf5d7c9dc194b03a8)
    Signature Algorithm: sha256WithRSAEncryption
        Issuer: C=CH, ST=Vaud, O=EPFL, OU=MedCo, CN=Node 1
        Validity
            Not Before: Apr 10 10:31:41 2018 GMT
            Not After : Apr 10 10:31:41 2019 GMT
        Subject: C=CH, ST=VD, L=Lausanne, O=EPFL, OU=LCA1, CN=iccluster031.iccluster.epfl.ch
        Subject Public Key Info:
            Public Key Algorithm: rsaEncryption
                Public-Key: (2048 bit)
                Modulus:
                    00:b6:86:ce:e9:b9:ef:4e:de:01:73:f4:88:b1:f1:
                    3f:6b:2d:31:bb:ca:88:c9:71:c4:1a:7e:35:8c:a7:
                    ab:0d:db:95:d3:33:83:29:1b:78:64:fc:52:81:d6:
                    8c:cb:77:43:d2:a3:87:e1:6d:83:84:01:f4:fa:56:
                    01:c0:9c:bb:af:23:c1:b1:86:a4:8a:9c:c9:73:17:
                    ef:9b:73:b3:c7:fd:3a:31:b1:2c:32:19:af:f6:4d:
                    de:fe:85:c7:5e:bf:a6:d4:02:50:bc:12:b5:2c:ba:
                    d3:0a:62:d7:63:70:13:65:8c:98:fd:f0:a2:2a:c7:
                    95:81:92:f9:b7:b5:b9:bc:86:fe:8a:54:92:e8:f1:
                    17:f4:da:6c:36:2b:25:88:50:74:39:fd:64:51:90:
                    58:be:24:5b:cb:e7:dd:01:bd:26:44:5e:a1:1c:d0:
                    f6:86:41:96:8b:be:4a:8e:fa:0a:33:01:04:ff:01:
                    3a:d4:8f:cf:d7:57:d1:2d:67:49:8a:e0:fa:c6:d4:
                    f2:19:41:c2:13:0f:0f:7a:fe:66:90:3a:63:b4:7e:
                    1b:1a:be:d7:bc:2e:ce:07:13:8e:c6:c2:af:d1:57:
                    18:85:f6:dd:00:f0:73:68:68:ea:70:32:78:cb:11:
                    64:75:0f:12:dc:4a:19:dd:78:6d:f8:3e:5b:07:f8:
                    62:7d
                Exponent: 65537 (0x10001)
        X509v3 extensions:
            X509v3 Basic Constraints: 
                CA:FALSE
            X509v3 Subject Alternative Name: 
                IP Address:10.90.38.7, DNS:iccluster031.iccluster.epfl.ch
            X509v3 Subject Key Identifier: 
                FF:1A:70:B3:B0:3D:C7:F7:5A:84:5C:D5:17:0D:96:E3:0B:80:C8:85
    Signature Algorithm: sha256WithRSAEncryption
         65:c7:a6:f8:d9:bd:a7:4c:bd:9f:74:86:4d:8a:c7:69:9c:de:
         d5:a8:a2:34:7d:fb:da:26:f2:60:dd:76:6a:69:42:ec:51:fa:
         b9:11:69:3a:48:fb:4d:42:40:5c:bb:1b:0e:aa:10:35:58:89:
         dc:36:af:dd:e9:6c:d5:b2:15:e1:da:21:94:a5:c8:25:2d:20:
         41:66:d4:2d:6e:01:8c:d2:28:02:87:aa:93:d5:3d:01:99:fc:
         6e:0f:7a:02:7f:00:25:61:37:19:92:e6:8a:d2:9a:65:de:bb:
         04:44:2d:2c:b1:bb:92:1f:89:8a:37:a4:65:34:d0:78:46:e4:
         d1:f0:8b:d2:9b:f5:d9:34:bf:1c:e4:e1:9b:dd:15:db:2a:f0:
         64:70:7e:f1:21:bf:8c:7f:81:42:86:4a:b6:bd:cf:f0:eb:93:
         5e:05:40:c0:79:94:5c:bc:78:25:e4:da:59:03:16:8d:2b:53:
         be:70:d7:d1:96:81:8d:ee:bd:f4:8d:44:4e:bf:4e:0c:fd:d7:
         a6:ec:d8:31:f0:09:74:95:ff:be:27:21:a8:b5:bb:07:8a:42:
         d6:d5:e5:af:b8:23:ca:a7:c1:8f:07:c5:2c:70:03:98:c1:86:
         5a:e5:74:b7:f4:56:99:24:42:ee:01:13:78:fb:1f:ed:1a:e7:
         cd:92:d7:96
-----BEGIN CERTIFICATE-----
MIIDoDCCAoigAwIBAgIJAPXXydwZSwOoMA0GCSqGSIb3DQEBCwUAMEwxCzAJBgNV
BAYTAkNIMQ0wCwYDVQQIDARWYXVkMQ0wCwYDVQQKDARFUEZMMQ4wDAYDVQQLDAVN
ZWRDbzEPMA0GA1UEAwwGTm9kZSAxMB4XDTE4MDQxMDEwMzE0MVoXDTE5MDQxMDEw
MzE0MVowdDELMAkGA1UEBhMCQ0gxCzAJBgNVBAgTAlZEMREwDwYDVQQHEwhMYXVz
YW5uZTENMAsGA1UEChMERVBGTDENMAsGA1UECxMETENBMTEnMCUGA1UEAxMeaWNj
bHVzdGVyMDMxLmljY2x1c3Rlci5lcGZsLmNoMIIBIjANBgkqhkiG9w0BAQEFAAOC
AQ8AMIIBCgKCAQEAtobO6bnvTt4Bc/SIsfE/ay0xu8qIyXHEGn41jKerDduV0zOD
KRt4ZPxSgdaMy3dD0qOH4W2DhAH0+lYBwJy7ryPBsYakipzJcxfvm3Ozx/06MbEs
Mhmv9k3e/oXHXr+m1AJQvBK1LLrTCmLXY3ATZYyY/fCiKseVgZL5t7W5vIb+ilSS
6PEX9NpsNisliFB0Of1kUZBYviRby+fdAb0mRF6hHND2hkGWi75KjvoKMwEE/wE6
1I/P11fRLWdJiuD6xtTyGUHCEw8Pev5mkDpjtH4bGr7XvC7OBxOOxsKv0VcYhfbd
APBzaGjqcDJ4yxFkdQ8S3EoZ3Xht+D5bB/hifQIDAQABo10wWzAJBgNVHRMEAjAA
MC8GA1UdEQQoMCaHBApaJgeCHmljY2x1c3RlcjAzMS5pY2NsdXN0ZXIuZXBmbC5j
aDAdBgNVHQ4EFgQU/xpws7A9x/dahFzVFw2W4wuAyIUwDQYJKoZIhvcNAQELBQAD
ggEBAGXHpvjZvadMvZ90hk2Kx2mc3tWoojR9+9om8mDddmppQuxR+rkRaTpI+01C
QFy7Gw6qEDVYidw2r93pbNWyFeHaIZSlyCUtIEFm1C1uAYzSKAKHqpPVPQGZ/G4P
egJ/ACVhNxmS5orSmmXeuwRELSyxu5IfiYo3pGU00HhG5NHwi9Kb9dk0vxzk4Zvd
Fdsq8GRwfvEhv4x/gUKGSra9z/Drk14FQMB5lFy8eCXk2lkDFo0rU75w19GWgY3u
vfSNRE6/Tgz916bs2DHwCXSV/74nIai1uweKQtbV5a+4I8qnwY8HxSxwA5jBhlrl
dLf0VpkkQu4BE3j7H+0a582S15Y=
-----END CERTIFICATE-----
