Certificate:
    Data:
        Version: 3 (0x2)
        Serial Number: 9234825056991670435 (0x8028b0760cdd70a3)
    Signature Algorithm: sha256WithRSAEncryption
        Issuer: C=xx, ST=x, O=x, OU=x, CN=x
        Validity
            Not Before: May  3 09:20:15 2018 GMT
            Not After : May  3 09:20:15 2019 GMT
        Subject: C=CH, ST=VD, L=Lausanne, O=EPFL, OU=LCA1, CN=iccluster070.iccluster.epfl.ch
        Subject Public Key Info:
            Public Key Algorithm: rsaEncryption
                Public-Key: (2048 bit)
                Modulus:
                    00:b9:29:62:ac:67:95:88:8b:95:4b:23:3a:03:92:
                    61:72:f2:4e:81:4b:eb:5b:ee:8d:db:fb:3b:d5:6f:
                    5c:31:c7:a7:7f:25:77:a7:8d:b9:62:dd:53:cf:4e:
                    3e:35:48:ec:d7:9f:5e:30:52:2d:60:ad:de:c6:70:
                    f2:bb:88:4d:ab:ab:49:f6:c9:45:69:6a:92:bd:56:
                    99:3b:d1:fc:61:4e:21:f8:5a:e9:71:d6:1e:ab:2c:
                    bb:2e:be:c8:83:45:45:c4:f3:55:b5:2e:94:97:d9:
                    81:3d:ab:ae:5b:87:78:72:aa:ad:82:3e:1f:ee:66:
                    f6:56:c8:45:06:3e:86:cf:0a:9f:b8:b7:93:89:91:
                    98:c1:65:44:b9:e8:bb:52:40:7c:90:12:e6:3b:9f:
                    d8:62:75:a7:3c:bc:d9:e3:26:63:62:d5:b3:92:02:
                    2e:16:60:32:9f:8d:4a:3d:a3:d3:cb:f7:b3:f5:a2:
                    ed:48:5e:8d:8c:43:24:32:2c:b4:6d:2e:ae:c2:3b:
                    e9:ff:f3:7d:b3:30:3c:5e:fa:79:72:41:c0:c9:51:
                    62:cf:2e:69:69:8a:48:0f:05:4a:23:81:20:d7:b5:
                    18:cd:d5:01:ff:e4:55:98:6d:93:17:e0:ad:b7:4b:
                    f2:64:f9:f2:e6:8a:55:74:1f:da:f7:04:7f:40:a3:
                    f2:43
                Exponent: 65537 (0x10001)
        X509v3 extensions:
            X509v3 Basic Constraints: 
                CA:FALSE
            X509v3 Subject Alternative Name: 
                IP Address:10.90.39.21, DNS:iccluster070.iccluster.epfl.ch
            X509v3 Subject Key Identifier: 
                1C:52:F6:30:56:3E:99:F2:E2:ED:43:CC:69:E2:2F:12:5B:CD:BC:F6
    Signature Algorithm: sha256WithRSAEncryption
         0c:e9:94:91:4f:07:f4:0f:df:8d:70:9b:16:bf:49:72:86:3c:
         69:e6:33:c5:b1:c3:1a:46:dc:0b:65:01:16:62:c2:1b:30:4a:
         57:12:d1:ef:91:49:9f:b9:83:8f:d2:14:fe:c7:2f:bd:9e:a2:
         67:cc:33:e2:17:c4:e3:fa:59:30:2e:06:8d:0b:28:fa:34:53:
         0a:c8:77:69:ee:e6:44:49:56:5a:ef:00:47:d6:25:2c:34:60:
         74:b6:f9:ff:d5:11:d8:cc:11:94:04:77:4d:3c:86:b1:8e:48:
         31:77:6e:0a:1c:dd:82:ae:b0:41:b6:82:95:d0:26:9d:b6:96:
         2d:44:c2:ac:76:47:05:bb:da:c2:8b:61:ba:c5:06:11:67:46:
         92:9a:dd:3d:7b:4b:11:57:b6:02:23:70:02:50:ed:61:ac:0a:
         1c:79:f6:7b:7b:76:27:d3:85:a2:c1:a9:24:57:5f:dd:c7:dc:
         e8:7d:15:a1:52:48:78:19:f5:77:2a:18:b0:71:3d:b9:45:94:
         6f:76:74:c2:84:f6:16:48:81:72:c6:b4:d1:5c:5a:78:c3:44:
         dc:f1:9c:f2:ab:4f:7b:56:d8:1d:f3:51:c0:ed:b8:ad:15:a9:
         17:9d:59:b2:f7:1c:d4:66:88:b9:bb:0f:6d:67:11:c2:c4:cf:
         ae:d3:58:9b
-----BEGIN CERTIFICATE-----
MIIDkTCCAnmgAwIBAgIJAIAosHYM3XCjMA0GCSqGSIb3DQEBCwUAMD0xCzAJBgNV
BAYTAnh4MQowCAYDVQQIDAF4MQowCAYDVQQKDAF4MQowCAYDVQQLDAF4MQowCAYD
VQQDDAF4MB4XDTE4MDUwMzA5MjAxNVoXDTE5MDUwMzA5MjAxNVowdDELMAkGA1UE
BhMCQ0gxCzAJBgNVBAgTAlZEMREwDwYDVQQHEwhMYXVzYW5uZTENMAsGA1UEChME
RVBGTDENMAsGA1UECxMETENBMTEnMCUGA1UEAxMeaWNjbHVzdGVyMDcwLmljY2x1
c3Rlci5lcGZsLmNoMIIBIjANBgkqhkiG9w0BAQEFAAOCAQ8AMIIBCgKCAQEAuSli
rGeViIuVSyM6A5JhcvJOgUvrW+6N2/s71W9cMcenfyV3p425Yt1Tz04+NUjs159e
MFItYK3exnDyu4hNq6tJ9slFaWqSvVaZO9H8YU4h+FrpcdYeqyy7Lr7Ig0VFxPNV
tS6Ul9mBPauuW4d4cqqtgj4f7mb2VshFBj6GzwqfuLeTiZGYwWVEuei7UkB8kBLm
O5/YYnWnPLzZ4yZjYtWzkgIuFmAyn41KPaPTy/ez9aLtSF6NjEMkMiy0bS6uwjvp
//N9szA8Xvp5ckHAyVFizy5paYpIDwVKI4Eg17UYzdUB/+RVmG2TF+Ctt0vyZPny
5opVdB/a9wR/QKPyQwIDAQABo10wWzAJBgNVHRMEAjAAMC8GA1UdEQQoMCaHBApa
JxWCHmljY2x1c3RlcjA3MC5pY2NsdXN0ZXIuZXBmbC5jaDAdBgNVHQ4EFgQUHFL2
MFY+mfLi7UPMaeIvElvNvPYwDQYJKoZIhvcNAQELBQADggEBAAzplJFPB/QP341w
mxa/SXKGPGnmM8WxwxpG3AtlARZiwhswSlcS0e+RSZ+5g4/SFP7HL72eomfMM+IX
xOP6WTAuBo0LKPo0UwrId2nu5kRJVlrvAEfWJSw0YHS2+f/VEdjMEZQEd008hrGO
SDF3bgoc3YKusEG2gpXQJp22li1Ewqx2RwW72sKLYbrFBhFnRpKa3T17SxFXtgIj
cAJQ7WGsChx59nt7difThaLBqSRXX93H3Oh9FaFSSHgZ9XcqGLBxPblFlG92dMKE
9hZIgXLGtNFcWnjDRNzxnPKrT3tW2B3zUcDtuK0VqRedWbL3HNRmiLm7D21nEcLE
z67TWJs=
-----END CERTIFICATE-----
