Certificate:
    Data:
        Version: 3 (0x2)
        Serial Number:
            dd:bf:24:7a:52:43:90:76
    Signature Algorithm: sha256WithRSAEncryption
        Issuer: C=CH, ST=Vaud, O=EPFL, OU=LCA1, CN=JoaoSA/emailAddress=jagsousa@gmail.com
        Validity
            Not Before: Jun 26 16:24:58 2018 GMT
            Not After : Jun 26 16:24:58 2019 GMT
        Subject: C=CH, ST=VD, L=Lausanne, O=EPFL, OU=LCA1, CN=localhost
        Subject Public Key Info:
            Public Key Algorithm: rsaEncryption
                Public-Key: (2048 bit)
                Modulus:
                    00:a8:bc:b1:eb:9a:9a:10:a1:f0:0d:13:2b:c1:bc:
                    42:b8:db:cf:86:82:1b:1a:6f:3e:a9:c6:c7:e4:29:
                    29:fc:d9:05:9b:56:c5:81:5f:2b:f3:18:17:1d:c4:
                    53:44:38:76:9b:49:0b:5b:0c:71:a2:bd:bc:84:0d:
                    01:cd:68:c1:af:b4:96:2a:b1:77:9e:46:e2:9e:73:
                    98:af:ee:5a:56:7b:aa:69:11:d1:1d:98:10:63:c0:
                    49:52:5a:7e:2f:29:e1:45:39:bf:6d:f5:38:36:ef:
                    b6:57:e1:74:40:14:1f:be:da:12:ab:36:a0:60:52:
                    2d:13:a4:a8:d1:04:1e:22:e8:cb:7a:b5:f1:77:13:
                    2c:4f:69:6b:c1:84:66:7e:57:3d:d4:08:46:6d:38:
                    ee:ae:33:69:24:cc:73:6d:14:bf:78:30:1e:29:f1:
                    85:4c:be:4c:08:41:1e:50:57:3d:c5:74:0d:b1:ef:
                    5d:56:00:30:99:ba:a5:c8:15:a9:43:fb:dd:04:fb:
                    1f:5c:3d:3e:c7:de:23:23:39:30:f9:1f:24:a9:2b:
                    9c:20:40:6c:03:24:68:80:1a:cc:e7:81:53:b1:7f:
                    26:c4:38:1e:a8:fc:0c:5e:9a:f2:9e:d1:33:c1:7f:
                    17:a5:52:ad:c8:b1:4c:ea:eb:18:80:c0:3b:66:6b:
                    cb:87
                Exponent: 65537 (0x10001)
        X509v3 extensions:
            X509v3 Basic Constraints: 
                CA:FALSE
            X509v3 Subject Alternative Name: 
                IP Address:172.16.205.10, DNS:localhost
            X509v3 Subject Key Identifier: 
                B2:54:98:B9:1F:00:98:4D:17:86:B9:D4:C6:9B:94:88:5A:18:DA:B7
    Signature Algorithm: sha256WithRSAEncryption
         81:cb:5b:a9:e3:46:8d:62:cd:ad:27:06:04:03:67:33:65:5f:
         e3:34:84:d0:f3:7e:1f:28:ff:79:bf:1d:39:5b:c6:c8:62:0b:
         98:de:d7:ef:49:9f:16:b2:d5:e6:4e:93:28:e9:ea:fc:5a:e2:
         1f:70:3f:cd:1b:3d:a9:00:33:59:ce:cb:ce:2d:40:1b:2b:5f:
         c2:a3:4b:aa:e4:40:23:50:bf:a1:eb:bb:7b:aa:98:53:cf:a8:
         41:bf:1c:19:fb:9e:f4:f5:6a:66:b5:d2:79:36:94:d1:f1:c4:
         13:2f:82:03:20:45:9d:4c:90:3f:d5:c9:2f:e7:4a:5f:96:66:
         25:ef:3a:72:ec:cc:13:96:c7:58:ff:24:dd:c4:84:65:c9:b8:
         23:55:4f:87:49:dd:f3:fe:b3:b0:d1:28:dd:40:ea:96:09:c2:
         01:74:09:cc:d0:b8:7a:6b:ff:57:1b:db:bb:50:81:6b:9c:70:
         22:aa:5c:8d:80:fa:cf:57:d9:45:64:a8:cb:34:2d:5b:ba:14:
         5d:71:1d:bf:47:8d:d9:b2:03:9a:57:e0:04:f6:8e:95:1e:96:
         3f:be:67:20:c8:e7:10:ab:bc:25:e3:8b:fe:85:7e:1f:4b:27:
         41:91:d6:97:6d:fe:75:98:08:34:73:dd:d0:95:58:96:76:5e:
         89:58:f5:71
-----BEGIN CERTIFICATE-----
MIIDmDCCAoCgAwIBAgIJAN2/JHpSQ5B2MA0GCSqGSIb3DQEBCwUAMG4xCzAJBgNV
BAYTAkNIMQ0wCwYDVQQIDARWYXVkMQ0wCwYDVQQKDARFUEZMMQ0wCwYDVQQLDARM
Q0ExMQ8wDQYDVQQDDAZKb2FvU0ExITAfBgkqhkiG9w0BCQEWEmphZ3NvdXNhQGdt
YWlsLmNvbTAeFw0xODA2MjYxNjI0NThaFw0xOTA2MjYxNjI0NThaMF8xCzAJBgNV
BAYTAkNIMQswCQYDVQQIEwJWRDERMA8GA1UEBxMITGF1c2FubmUxDTALBgNVBAoT
BEVQRkwxDTALBgNVBAsTBExDQTExEjAQBgNVBAMTCWxvY2FsaG9zdDCCASIwDQYJ
KoZIhvcNAQEBBQADggEPADCCAQoCggEBAKi8seuamhCh8A0TK8G8Qrjbz4aCGxpv
PqnGx+QpKfzZBZtWxYFfK/MYFx3EU0Q4dptJC1sMcaK9vIQNAc1owa+0liqxd55G
4p5zmK/uWlZ7qmkR0R2YEGPASVJafi8p4UU5v231ODbvtlfhdEAUH77aEqs2oGBS
LROkqNEEHiLoy3q18XcTLE9pa8GEZn5XPdQIRm047q4zaSTMc20Uv3gwHinxhUy+
TAhBHlBXPcV0DbHvXVYAMJm6pcgVqUP73QT7H1w9PsfeIyM5MPkfJKkrnCBAbAMk
aIAazOeBU7F/JsQ4Hqj8DF6a8p7RM8F/F6VSrcixTOrrGIDAO2Zry4cCAwEAAaNI
MEYwCQYDVR0TBAIwADAaBgNVHREEEzARhwSsEM0Kgglsb2NhbGhvc3QwHQYDVR0O
BBYEFLJUmLkfAJhNF4a51MablIhaGNq3MA0GCSqGSIb3DQEBCwUAA4IBAQCBy1up
40aNYs2tJwYEA2czZV/jNITQ834fKP95vx05W8bIYguY3tfvSZ8WstXmTpMo6er8
WuIfcD/NGz2pADNZzsvOLUAbK1/Co0uq5EAjUL+h67t7qphTz6hBvxwZ+5709Wpm
tdJ5NpTR8cQTL4IDIEWdTJA/1ckv50pflmYl7zpy7MwTlsdY/yTdxIRlybgjVU+H
Sd3z/rOw0SjdQOqWCcIBdAnM0Lh6a/9XG9u7UIFrnHAiqlyNgPrPV9lFZKjLNC1b
uhRdcR2/R43ZsgOaV+AE9o6VHpY/vmcgyOcQq7wl44v+hX4fSydBkdaXbf51mAg0
c93QlViWdl6JWPVx
-----END CERTIFICATE-----
