Certificate:
    Data:
        Version: 3 (0x2)
        Serial Number:
            ed:8f:a8:6c:98:85:fc:8a
    Signature Algorithm: sha256WithRSAEncryption
        Issuer: C=CH, ST=VD, O=EPFL, OU=LCA1, CN=MedCo
        Validity
            Not Before: Oct 31 15:46:05 2017 GMT
            Not After : Oct 31 15:46:05 2018 GMT
        Subject: C=CH, ST=VD, L=Lausanne, O=EPFL, OU=LCA1, CN=shrine-server-srv2
        Subject Public Key Info:
            Public Key Algorithm: rsaEncryption
                Public-Key: (2048 bit)
                Modulus:
                    00:b8:31:10:61:99:d6:ef:d5:6f:45:c0:1e:2f:b6:
                    65:97:bf:e9:49:33:af:b2:42:fe:0f:64:92:c5:e7:
                    ce:2b:5c:9c:0f:2b:66:f7:56:2f:88:61:e4:d1:c6:
                    5b:30:f1:ce:a7:cf:4e:95:c2:ca:a3:62:3c:e6:46:
                    a0:26:2b:59:82:dc:c2:1a:06:6a:29:b9:f3:34:8a:
                    3e:91:75:f2:78:17:6e:62:ef:a7:61:22:f4:ac:1e:
                    cd:fc:64:c8:74:86:f3:3b:d4:01:33:18:60:dc:ac:
                    0d:2f:60:31:32:35:1d:e2:3c:d7:ef:0b:b1:92:11:
                    0c:7d:14:29:03:2a:3f:55:90:5f:47:ad:93:5e:2b:
                    66:52:cf:fd:b7:78:83:de:b7:ad:7f:0a:92:d8:64:
                    4f:c4:79:01:b2:e8:9e:13:6e:04:34:37:3e:40:9b:
                    36:e8:aa:f4:b9:bd:8a:35:25:da:73:7b:a7:fa:91:
                    c0:14:b7:4e:2d:0c:be:34:ca:50:c4:63:8d:bf:fe:
                    d4:aa:03:14:42:f8:0f:c9:82:cc:85:ae:0d:fb:70:
                    b1:ec:24:1b:5d:c3:01:d3:1d:e6:94:dd:9a:bb:e4:
                    2c:79:51:8b:df:f2:42:75:96:48:ab:7a:b9:13:e5:
                    8d:10:4a:40:9e:51:cb:ef:7b:9e:79:32:8d:ee:29:
                    f6:49
                Exponent: 65537 (0x10001)
        X509v3 extensions:
            X509v3 Basic Constraints: 
                CA:FALSE
            Netscape Comment: 
                OpenSSL Generated Certificate
            X509v3 Subject Key Identifier: 
                B4:15:C0:03:DD:3E:34:58:F0:52:D1:7F:23:4B:1C:93:0E:60:C6:88
            X509v3 Authority Key Identifier: 
                keyid:01:DE:49:6D:35:C5:54:41:F7:F0:31:B3:2D:11:5C:D6:B5:EB:4F:06

    Signature Algorithm: sha256WithRSAEncryption
         89:21:4e:d3:1e:72:b4:34:9e:8d:84:97:97:d1:bf:7b:fe:1e:
         d8:ef:9a:39:46:c3:11:ff:e2:6b:bf:91:65:59:c6:d3:eb:84:
         39:f3:39:4d:49:48:f6:9f:97:29:ed:06:33:e2:d5:80:c1:f0:
         65:d6:83:6b:16:92:fb:71:ac:c3:ce:af:34:6a:ef:62:79:12:
         0d:d1:78:2c:f7:1b:b9:29:8a:21:ad:5a:87:06:b6:12:35:b6:
         f9:fb:53:34:e2:0d:33:6b:50:7d:5e:55:75:55:9a:b1:22:af:
         e7:c2:c0:51:74:ea:a3:4e:3e:ea:10:dc:ee:8c:57:33:1c:31:
         e7:44:97:a1:91:d9:05:2f:07:86:ba:c5:7b:f0:ed:12:60:8e:
         da:ee:10:13:1e:dd:00:fa:9d:9a:fc:20:5f:18:72:6d:b7:37:
         cc:a6:aa:26:19:69:95:b5:7a:3c:43:97:ef:25:61:eb:0f:bc:
         03:37:33:62:12:99:1a:3c:f5:bf:e1:e3:24:b0:3b:99:16:6f:
         90:6d:e4:50:5e:31:eb:a4:8f:ae:08:77:72:2b:f5:d9:8c:41:
         0f:03:38:b4:57:22:85:98:77:c8:9b:b1:14:9e:e6:5d:e4:fc:
         3c:66:7b:4c:2e:68:3d:6e:b3:0d:9e:bc:41:e0:45:be:99:96:
         31:52:20:b1
-----BEGIN CERTIFICATE-----
MIIDrjCCApagAwIBAgIJAO2PqGyYhfyKMA0GCSqGSIb3DQEBCwUAMEgxCzAJBgNV
BAYTAkNIMQswCQYDVQQIDAJWRDENMAsGA1UECgwERVBGTDENMAsGA1UECwwETENB
MTEOMAwGA1UEAwwFTWVkQ28wHhcNMTcxMDMxMTU0NjA1WhcNMTgxMDMxMTU0NjA1
WjBoMQswCQYDVQQGEwJDSDELMAkGA1UECBMCVkQxETAPBgNVBAcTCExhdXNhbm5l
MQ0wCwYDVQQKEwRFUEZMMQ0wCwYDVQQLEwRMQ0ExMRswGQYDVQQDExJzaHJpbmUt
c2VydmVyLXNydjIwggEiMA0GCSqGSIb3DQEBAQUAA4IBDwAwggEKAoIBAQC4MRBh
mdbv1W9FwB4vtmWXv+lJM6+yQv4PZJLF584rXJwPK2b3Vi+IYeTRxlsw8c6nz06V
wsqjYjzmRqAmK1mC3MIaBmopufM0ij6RdfJ4F25i76dhIvSsHs38ZMh0hvM71AEz
GGDcrA0vYDEyNR3iPNfvC7GSEQx9FCkDKj9VkF9HrZNeK2ZSz/23eIPet61/CpLY
ZE/EeQGy6J4TbgQ0Nz5AmzboqvS5vYo1Jdpze6f6kcAUt04tDL40ylDEY42//tSq
AxRC+A/JgsyFrg37cLHsJBtdwwHTHeaU3Zq75Cx5UYvf8kJ1lkirerkT5Y0QSkCe
Ucvve555Mo3uKfZJAgMBAAGjezB5MAkGA1UdEwQCMAAwLAYJYIZIAYb4QgENBB8W
HU9wZW5TU0wgR2VuZXJhdGVkIENlcnRpZmljYXRlMB0GA1UdDgQWBBS0FcAD3T40
WPBS0X8jSxyTDmDGiDAfBgNVHSMEGDAWgBQB3kltNcVUQffwMbMtEVzWtetPBjAN
BgkqhkiG9w0BAQsFAAOCAQEAiSFO0x5ytDSejYSXl9G/e/4e2O+aOUbDEf/ia7+R
ZVnG0+uEOfM5TUlI9p+XKe0GM+LVgMHwZdaDaxaS+3Gsw86vNGrvYnkSDdF4LPcb
uSmKIa1ahwa2EjW2+ftTNOINM2tQfV5VdVWasSKv58LAUXTqo04+6hDc7oxXMxwx
50SXoZHZBS8HhrrFe/DtEmCO2u4QEx7dAPqdmvwgXxhybbc3zKaqJhlplbV6PEOX
7yVh6w+8AzczYhKZGjz1v+HjJLA7mRZvkG3kUF4x66SPrgh3civ12YxBDwM4tFci
hZh3yJuxFJ7mXeT8PGZ7TC5oPW6zDZ68QeBFvpmWMVIgsQ==
-----END CERTIFICATE-----
