Certificate:
    Data:
        Version: 3 (0x2)
        Serial Number: 10447006671966997915 (0x90fb3937b0ba8d9b)
    Signature Algorithm: sha256WithRSAEncryption
        Issuer: C=xx, ST=x, O=x, OU=x, CN=x
        Validity
            Not Before: Apr 17 16:32:00 2018 GMT
            Not After : Apr 16 16:32:00 2021 GMT
        Subject: C=xx, ST=x, O=x, OU=x, CN=x
        Subject Public Key Info:
            Public Key Algorithm: rsaEncryption
                Public-Key: (2048 bit)
                Modulus:
                    00:db:ba:9b:80:f5:a4:4d:dd:25:a4:bc:09:1b:75:
                    25:92:5f:a7:45:0c:f2:5a:66:76:a1:04:b8:3e:51:
                    ee:69:e3:d6:14:25:12:ec:60:0b:75:b2:db:16:68:
                    f4:c3:24:8e:c7:21:15:15:9e:9f:4b:0b:a6:67:b4:
                    25:d5:ab:bf:c4:23:1b:8f:4f:4e:24:a7:12:aa:ad:
                    09:df:2f:f4:bf:cd:7b:2d:da:5f:21:38:7d:0e:60:
                    db:3c:41:54:cb:28:52:76:ed:be:18:6c:3e:bb:e8:
                    51:1f:55:75:a0:e5:54:e4:ac:13:ec:0c:89:cb:1b:
                    f9:27:2f:46:91:8f:a1:af:d7:79:d8:e2:15:9c:b3:
                    3c:2f:9c:aa:fa:ba:ba:d3:e1:09:77:af:c3:1d:a7:
                    84:ab:a8:7a:d4:68:b6:e1:50:d8:f8:ce:39:4d:f7:
                    dc:b5:58:7b:ad:ea:59:8c:8c:d8:74:54:e5:54:e8:
                    6d:40:0c:c7:c0:65:ca:e2:3d:96:3d:8f:33:1b:31:
                    0f:83:9f:fb:f1:e2:44:64:b8:a4:29:3f:b4:c8:1a:
                    e6:84:6f:bd:8b:9c:2a:20:e4:ea:b5:15:67:a8:88:
                    b3:a3:f9:3e:03:0f:b6:a5:4f:80:fa:1a:a5:26:93:
                    d1:aa:76:85:e2:07:06:30:17:be:eb:df:4e:d9:16:
                    5d:2d
                Exponent: 65537 (0x10001)
        X509v3 extensions:
            X509v3 Subject Key Identifier: 
                E6:71:3E:31:44:84:80:1D:82:19:91:31:95:CB:98:EA:45:30:9E:99
            X509v3 Authority Key Identifier: 
                keyid:E6:71:3E:31:44:84:80:1D:82:19:91:31:95:CB:98:EA:45:30:9E:99

            X509v3 Basic Constraints: 
                CA:TRUE
    Signature Algorithm: sha256WithRSAEncryption
         06:26:9a:f0:b8:11:f6:f8:39:c8:b3:88:0a:fe:a8:1c:45:00:
         49:f9:c9:1b:5f:5b:6f:9e:bb:52:2e:94:d0:2f:68:33:3c:01:
         06:73:ba:6a:79:fb:05:76:bc:93:bf:82:db:ca:23:b5:26:95:
         b1:77:57:6b:df:a1:00:f9:dc:cf:7d:f3:a0:c2:6a:bf:0c:d6:
         60:03:4b:70:96:a3:32:88:2d:fe:34:f4:57:c9:74:db:f2:c6:
         8d:82:e3:ae:d8:48:84:f2:bc:e4:54:56:85:14:82:d8:5a:7a:
         7e:1b:aa:ef:04:30:3d:4f:ed:b3:52:4e:86:c0:c5:f6:f2:9a:
         34:31:4e:7c:a3:6b:9f:66:d7:81:9b:9f:c1:dd:29:ab:75:7f:
         2e:72:ad:4e:9d:d2:3e:e1:e8:02:20:55:8b:70:90:37:87:c3:
         31:86:f2:e7:d9:89:63:ca:50:03:58:b1:ba:e4:53:75:4c:6e:
         ad:1a:d8:a0:2e:4b:51:7e:bf:0b:ba:a1:6d:52:5b:9a:22:4f:
         53:ca:f6:0d:82:ba:a4:d9:58:77:60:8e:7c:dc:78:bc:ca:eb:
         92:6d:26:4a:4c:96:28:a9:a1:43:33:6e:6c:e8:97:46:cd:42:
         d4:a3:3c:09:ea:a9:11:6d:35:ad:9b:40:7e:c3:46:88:a7:e4:
         38:d3:33:f7
-----BEGIN CERTIFICATE-----
MIIDTTCCAjWgAwIBAgIJAJD7OTewuo2bMA0GCSqGSIb3DQEBCwUAMD0xCzAJBgNV
BAYTAnh4MQowCAYDVQQIDAF4MQowCAYDVQQKDAF4MQowCAYDVQQLDAF4MQowCAYD
VQQDDAF4MB4XDTE4MDQxNzE2MzIwMFoXDTIxMDQxNjE2MzIwMFowPTELMAkGA1UE
BhMCeHgxCjAIBgNVBAgMAXgxCjAIBgNVBAoMAXgxCjAIBgNVBAsMAXgxCjAIBgNV
BAMMAXgwggEiMA0GCSqGSIb3DQEBAQUAA4IBDwAwggEKAoIBAQDbupuA9aRN3SWk
vAkbdSWSX6dFDPJaZnahBLg+Ue5p49YUJRLsYAt1stsWaPTDJI7HIRUVnp9LC6Zn
tCXVq7/EIxuPT04kpxKqrQnfL/S/zXst2l8hOH0OYNs8QVTLKFJ27b4YbD676FEf
VXWg5VTkrBPsDInLG/knL0aRj6Gv13nY4hWcszwvnKr6urrT4Ql3r8Mdp4SrqHrU
aLbhUNj4zjlN99y1WHut6lmMjNh0VOVU6G1ADMfAZcriPZY9jzMbMQ+Dn/vx4kRk
uKQpP7TIGuaEb72LnCog5Oq1FWeoiLOj+T4DD7alT4D6GqUmk9GqdoXiBwYwF77r
307ZFl0tAgMBAAGjUDBOMB0GA1UdDgQWBBTmcT4xRISAHYIZkTGVy5jqRTCemTAf
BgNVHSMEGDAWgBTmcT4xRISAHYIZkTGVy5jqRTCemTAMBgNVHRMEBTADAQH/MA0G
CSqGSIb3DQEBCwUAA4IBAQAGJprwuBH2+DnIs4gK/qgcRQBJ+ckbX1tvnrtSLpTQ
L2gzPAEGc7pqefsFdryTv4LbyiO1JpWxd1dr36EA+dzPffOgwmq/DNZgA0twlqMy
iC3+NPRXyXTb8saNguOu2EiE8rzkVFaFFILYWnp+G6rvBDA9T+2zUk6GwMX28po0
MU58o2ufZteBm5/B3SmrdX8ucq1OndI+4egCIFWLcJA3h8MxhvLn2YljylADWLG6
5FN1TG6tGtigLktRfr8LuqFtUluaIk9TyvYNgrqk2Vh3YI583Hi8yuuSbSZKTJYo
qaFDM25s6JdGzULUozwJ6qkRbTWtm0B+w0aIp+Q40zP3
-----END CERTIFICATE-----
