Certificate:
    Data:
        Version: 3 (0x2)
        Serial Number: 10447006671966997916 (0x90fb3937b0ba8d9c)
    Signature Algorithm: sha256WithRSAEncryption
        Issuer: C=xx, ST=x, O=x, OU=x, CN=x
        Validity
            Not Before: Apr 17 16:32:04 2018 GMT
            Not After : Apr 17 16:32:04 2019 GMT
        Subject: C=CH, ST=VD, L=Lausanne, O=EPFL, OU=LCA1, CN=iccluster082.iccluster.epfl.ch
        Subject Public Key Info:
            Public Key Algorithm: rsaEncryption
                Public-Key: (2048 bit)
                Modulus:
                    00:cc:f1:47:d6:87:64:89:3b:69:31:56:51:44:49:
                    eb:06:b2:48:6a:d8:16:2b:c1:91:3c:22:e0:2e:d6:
                    f7:35:80:db:48:02:05:e3:01:c9:54:c1:02:8c:a2:
                    8c:d3:4b:54:99:cf:42:8b:0e:2e:aa:b5:49:69:ca:
                    1a:a7:ce:d2:e3:f6:c5:17:af:65:43:fd:19:c1:55:
                    ba:d0:c5:07:2b:d9:a9:85:a0:6e:3e:5c:36:fe:5c:
                    10:cf:1f:31:c2:60:c1:29:45:a2:74:18:35:98:65:
                    db:ff:e7:14:60:8f:71:74:3c:15:7e:87:2d:c7:d5:
                    b0:17:6c:e0:e3:7c:7e:0a:32:5d:5c:87:8f:41:7a:
                    f8:e2:60:fc:6b:80:ad:4f:e0:d6:a8:0c:1d:4a:f2:
                    65:b0:ad:72:08:b6:ca:4b:a2:d6:dc:3d:b6:a3:01:
                    f9:7c:8e:f4:b5:06:4e:0b:41:aa:21:65:4c:73:44:
                    02:6b:a2:ef:bf:b2:67:2c:55:c8:01:64:54:a4:26:
                    f3:b9:5e:27:08:57:58:62:62:66:32:f9:a7:46:79:
                    89:99:e3:dc:cb:f0:c8:a0:5a:90:60:f4:7f:9c:3c:
                    6d:8f:82:26:9a:22:7d:f4:73:c7:da:c5:98:af:47:
                    ad:d6:5d:ce:80:d0:97:cc:43:d9:df:5d:8c:7e:71:
                    88:93
                Exponent: 65537 (0x10001)
        X509v3 extensions:
            X509v3 Basic Constraints: 
                CA:FALSE
            X509v3 Subject Alternative Name: 
                IP Address:10.90.40.8, DNS:iccluster082.iccluster.epfl.ch
            X509v3 Subject Key Identifier: 
                2D:42:68:A4:02:42:7E:1E:B3:C5:81:84:62:FE:72:55:5D:8C:3C:25
    Signature Algorithm: sha256WithRSAEncryption
         27:fc:88:22:2c:34:ba:74:c2:7e:e6:94:d6:9e:3d:a1:36:a8:
         22:f0:a2:ea:ce:44:19:2a:df:26:fd:3a:ee:d4:b4:a5:c3:34:
         97:d9:da:0d:66:81:c9:85:df:1c:99:53:d6:ac:31:d7:40:e6:
         71:ff:d3:03:1d:8c:28:96:36:d0:e7:8d:b2:98:d7:f9:c9:5f:
         86:ec:f4:36:82:91:2c:91:ff:f0:12:48:8b:71:e2:85:ec:34:
         18:9f:5c:c4:07:37:61:15:d2:fa:35:46:c0:fa:cf:12:ae:bd:
         6b:78:26:d3:1f:4d:4b:4f:82:16:cd:2d:ec:6d:44:48:03:c3:
         cd:9e:8e:20:eb:98:fe:d5:b9:82:4b:0f:f6:23:cf:83:8c:09:
         ec:03:57:5b:b0:c2:ef:20:38:9c:78:ab:50:b8:91:0f:9f:a1:
         77:04:a6:f2:1f:4a:05:8b:74:ca:ee:fa:07:6d:4d:94:c1:a2:
         26:d8:24:5a:4e:12:e0:e5:6f:65:41:15:ee:a5:9a:b6:3e:bb:
         63:71:5a:3c:70:cc:49:fa:d6:17:07:8a:ac:27:26:d2:15:0d:
         12:de:63:fb:34:b8:d8:8a:ad:fd:80:70:58:7a:44:d7:c5:e1:
         0d:9b:e5:db:8b:0b:1e:af:9e:d7:df:43:5f:de:f0:7b:88:ef:
         f9:26:9d:86
-----BEGIN CERTIFICATE-----
MIIDkTCCAnmgAwIBAgIJAJD7OTewuo2cMA0GCSqGSIb3DQEBCwUAMD0xCzAJBgNV
BAYTAnh4MQowCAYDVQQIDAF4MQowCAYDVQQKDAF4MQowCAYDVQQLDAF4MQowCAYD
VQQDDAF4MB4XDTE4MDQxNzE2MzIwNFoXDTE5MDQxNzE2MzIwNFowdDELMAkGA1UE
BhMCQ0gxCzAJBgNVBAgTAlZEMREwDwYDVQQHEwhMYXVzYW5uZTENMAsGA1UEChME
RVBGTDENMAsGA1UECxMETENBMTEnMCUGA1UEAxMeaWNjbHVzdGVyMDgyLmljY2x1
c3Rlci5lcGZsLmNoMIIBIjANBgkqhkiG9w0BAQEFAAOCAQ8AMIIBCgKCAQEAzPFH
1odkiTtpMVZRREnrBrJIatgWK8GRPCLgLtb3NYDbSAIF4wHJVMECjKKM00tUmc9C
iw4uqrVJacoap87S4/bFF69lQ/0ZwVW60MUHK9mphaBuPlw2/lwQzx8xwmDBKUWi
dBg1mGXb/+cUYI9xdDwVfoctx9WwF2zg43x+CjJdXIePQXr44mD8a4CtT+DWqAwd
SvJlsK1yCLbKS6LW3D22owH5fI70tQZOC0GqIWVMc0QCa6Lvv7JnLFXIAWRUpCbz
uV4nCFdYYmJmMvmnRnmJmePcy/DIoFqQYPR/nDxtj4ImmiJ99HPH2sWYr0et1l3O
gNCXzEPZ312MfnGIkwIDAQABo10wWzAJBgNVHRMEAjAAMC8GA1UdEQQoMCaHBApa
KAiCHmljY2x1c3RlcjA4Mi5pY2NsdXN0ZXIuZXBmbC5jaDAdBgNVHQ4EFgQULUJo
pAJCfh6zxYGEYv5yVV2MPCUwDQYJKoZIhvcNAQELBQADggEBACf8iCIsNLp0wn7m
lNaePaE2qCLwourORBkq3yb9Ou7UtKXDNJfZ2g1mgcmF3xyZU9asMddA5nH/0wMd
jCiWNtDnjbKY1/nJX4bs9DaCkSyR//ASSItx4oXsNBifXMQHN2EV0vo1RsD6zxKu
vWt4JtMfTUtPghbNLextREgDw82ejiDrmP7VuYJLD/Yjz4OMCewDV1uwwu8gOJx4
q1C4kQ+foXcEpvIfSgWLdMru+gdtTZTBoibYJFpOEuDlb2VBFe6lmrY+u2NxWjxw
zEn61hcHiqwnJtIVDRLeY/s0uNiKrf2AcFh6RNfF4Q2b5duLCx6vntffQ1/e8HuI
7/kmnYY=
-----END CERTIFICATE-----
