Certificate:
    Data:
        Version: 3 (0x2)
        Serial Number: 10447006671966997918 (0x90fb3937b0ba8d9e)
    Signature Algorithm: sha256WithRSAEncryption
        Issuer: C=xx, ST=x, O=x, OU=x, CN=x
        Validity
            Not Before: Apr 17 16:32:20 2018 GMT
            Not After : Apr 17 16:32:20 2019 GMT
        Subject: C=CH, ST=VD, L=Lausanne, O=EPFL, OU=LCA1, CN=iccluster084.iccluster.epfl.ch
        Subject Public Key Info:
            Public Key Algorithm: rsaEncryption
                Public-Key: (2048 bit)
                Modulus:
                    00:89:2b:9b:14:37:41:49:11:32:f7:14:72:30:38:
                    78:ec:19:2a:fc:6d:7c:a1:ea:ba:8c:ec:6d:cb:3d:
                    ce:e4:5f:c9:95:74:2b:ef:49:a8:f0:31:75:fd:03:
                    dc:df:00:5b:d6:df:97:64:10:c0:0f:ab:dc:ca:4a:
                    65:f3:f2:ef:5a:62:91:ce:47:f8:8e:c5:cb:b0:dc:
                    7b:b1:0b:d0:e6:dd:cf:4b:9f:1a:b3:84:7d:a0:a6:
                    20:56:e4:bf:eb:65:ad:48:b2:c4:2c:c1:55:f5:cd:
                    16:06:ed:89:e8:87:3a:c4:f4:25:f1:2c:7c:3f:3c:
                    1d:32:31:9b:f2:19:cd:92:50:f4:d6:13:f6:8a:92:
                    ff:cb:09:bb:6f:9f:59:86:68:d1:1d:2d:9e:3a:af:
                    15:a1:cc:d5:ff:3a:30:86:78:54:08:56:22:a6:a0:
                    05:30:9d:25:23:50:84:b7:12:8a:ac:bc:ed:f2:68:
                    3d:4d:4b:50:5c:7e:28:87:43:b2:c5:6a:e3:bb:ae:
                    6b:28:b8:3d:02:82:a7:21:8d:5f:37:4e:d7:d3:c5:
                    27:5c:2c:11:19:fa:23:9d:69:af:fc:53:22:40:48:
                    1a:ca:ad:76:64:a5:0d:f7:d8:04:29:d4:30:0d:bb:
                    f7:db:50:f7:bb:f4:b3:be:89:32:b7:2e:59:db:a5:
                    5f:29
                Exponent: 65537 (0x10001)
        X509v3 extensions:
            X509v3 Basic Constraints: 
                CA:FALSE
            X509v3 Subject Alternative Name: 
                IP Address:10.90.40.10, DNS:iccluster084.iccluster.epfl.ch
            X509v3 Subject Key Identifier: 
                22:57:74:B6:C7:1B:2F:05:65:01:CA:25:2B:4E:4A:D4:6F:4D:10:27
    Signature Algorithm: sha256WithRSAEncryption
         52:b1:b9:ec:4d:4c:4e:97:71:ae:8f:8d:12:d9:72:0e:4d:ad:
         47:a8:16:8b:02:66:ad:22:13:ed:45:3a:c2:ba:0f:33:e3:ed:
         75:d2:a8:97:6b:9c:3f:82:0d:29:95:b5:eb:51:06:79:8f:e4:
         87:d5:64:0c:fd:8c:71:b5:c5:0f:75:8d:ac:d2:66:bf:99:a5:
         e3:2c:3d:38:30:71:74:ae:60:3a:99:35:b5:c4:ff:f4:df:ca:
         d8:93:f4:39:09:e6:7f:7e:1b:e1:70:ed:e4:83:8f:db:80:8d:
         cb:b7:70:f5:84:10:85:2f:97:80:aa:d9:7b:9a:b8:b2:ed:43:
         0e:1b:3a:d6:10:70:c7:f7:14:31:fd:61:09:1b:91:7b:7e:f1:
         16:60:7f:61:e0:06:df:2c:84:ae:2b:8c:34:60:fd:c0:79:be:
         1d:44:e7:2c:73:b4:1f:b5:4f:ed:a6:85:87:26:af:8b:93:fe:
         a7:6e:8c:86:0d:11:8b:b8:c3:78:42:b7:1d:b0:6b:7e:71:a1:
         1f:ac:d4:7e:91:c9:88:84:45:4b:af:fb:b2:36:11:26:f7:ad:
         33:b3:7d:d6:f3:1b:99:24:d8:f7:72:9f:0f:64:30:22:83:43:
         ec:a9:01:19:dd:02:39:93:5c:b1:a3:a1:d8:99:49:b4:ff:06:
         64:92:32:b5
-----BEGIN CERTIFICATE-----
MIIDkTCCAnmgAwIBAgIJAJD7OTewuo2eMA0GCSqGSIb3DQEBCwUAMD0xCzAJBgNV
BAYTAnh4MQowCAYDVQQIDAF4MQowCAYDVQQKDAF4MQowCAYDVQQLDAF4MQowCAYD
VQQDDAF4MB4XDTE4MDQxNzE2MzIyMFoXDTE5MDQxNzE2MzIyMFowdDELMAkGA1UE
BhMCQ0gxCzAJBgNVBAgTAlZEMREwDwYDVQQHEwhMYXVzYW5uZTENMAsGA1UEChME
RVBGTDENMAsGA1UECxMETENBMTEnMCUGA1UEAxMeaWNjbHVzdGVyMDg0LmljY2x1
c3Rlci5lcGZsLmNoMIIBIjANBgkqhkiG9w0BAQEFAAOCAQ8AMIIBCgKCAQEAiSub
FDdBSREy9xRyMDh47Bkq/G18oeq6jOxtyz3O5F/JlXQr70mo8DF1/QPc3wBb1t+X
ZBDAD6vcykpl8/LvWmKRzkf4jsXLsNx7sQvQ5t3PS58as4R9oKYgVuS/62WtSLLE
LMFV9c0WBu2J6Ic6xPQl8Sx8PzwdMjGb8hnNklD01hP2ipL/ywm7b59ZhmjRHS2e
Oq8VoczV/zowhnhUCFYipqAFMJ0lI1CEtxKKrLzt8mg9TUtQXH4oh0OyxWrju65r
KLg9AoKnIY1fN07X08UnXCwRGfojnWmv/FMiQEgayq12ZKUN99gEKdQwDbv321D3
u/Szvokyty5Z26VfKQIDAQABo10wWzAJBgNVHRMEAjAAMC8GA1UdEQQoMCaHBApa
KAqCHmljY2x1c3RlcjA4NC5pY2NsdXN0ZXIuZXBmbC5jaDAdBgNVHQ4EFgQUIld0
tscbLwVlAcolK05K1G9NECcwDQYJKoZIhvcNAQELBQADggEBAFKxuexNTE6Xca6P
jRLZcg5NrUeoFosCZq0iE+1FOsK6DzPj7XXSqJdrnD+CDSmVtetRBnmP5IfVZAz9
jHG1xQ91jazSZr+ZpeMsPTgwcXSuYDqZNbXE//TfytiT9DkJ5n9+G+Fw7eSDj9uA
jcu3cPWEEIUvl4Cq2XuauLLtQw4bOtYQcMf3FDH9YQkbkXt+8RZgf2HgBt8shK4r
jDRg/cB5vh1E5yxztB+1T+2mhYcmr4uT/qdujIYNEYu4w3hCtx2wa35xoR+s1H6R
yYiERUuv+7I2ESb3rTOzfdbzG5kk2Pdynw9kMCKDQ+ypARndAjmTXLGjodiZSbT/
BmSSMrU=
-----END CERTIFICATE-----
