Certificate:
    Data:
        Version: 3 (0x2)
        Serial Number: 10447006671966997917 (0x90fb3937b0ba8d9d)
    Signature Algorithm: sha256WithRSAEncryption
        Issuer: C=xx, ST=x, O=x, OU=x, CN=x
        Validity
            Not Before: Apr 17 16:32:12 2018 GMT
            Not After : Apr 17 16:32:12 2019 GMT
        Subject: C=CH, ST=VD, L=Lausanne, O=EPFL, OU=LCA1, CN=iccluster083.iccluster.epfl.ch
        Subject Public Key Info:
            Public Key Algorithm: rsaEncryption
                Public-Key: (2048 bit)
                Modulus:
                    00:9d:61:e6:62:6a:0b:88:7a:f1:03:25:c8:66:80:
                    1b:8b:33:32:9e:ed:ea:79:d5:86:d1:27:6d:ec:c4:
                    d7:f0:b9:90:23:45:90:79:5f:0a:43:81:1b:2e:90:
                    36:2f:af:97:cc:44:59:f4:0c:8a:34:5a:3d:08:71:
                    0d:79:75:aa:d1:23:05:eb:5c:2c:39:58:5c:1a:f3:
                    bb:19:fc:03:8e:91:7f:d4:4f:01:41:ad:83:60:18:
                    78:13:c2:b1:da:0d:51:e3:7e:40:82:c9:21:ee:b2:
                    4d:9a:8d:9e:18:63:22:c9:a2:91:4c:79:d1:6f:ed:
                    a0:1e:e4:18:90:59:c7:bb:a4:30:d5:f3:66:df:9a:
                    05:35:83:2a:f6:24:67:d7:5d:5e:19:b3:4d:a9:86:
                    d4:c1:35:05:15:cf:ff:54:ab:0d:41:3a:f8:69:48:
                    f9:e6:b6:09:86:bb:10:92:ab:58:3d:b8:dc:4e:14:
                    73:13:f8:ec:fc:7c:86:6a:28:a7:aa:ff:54:3b:65:
                    62:0f:c1:1b:f7:a4:78:31:3e:3d:72:32:56:22:49:
                    f3:09:cc:46:01:31:b4:b6:17:b7:9d:cd:87:7a:05:
                    2d:22:dc:1e:d8:fc:e5:b0:34:a1:6c:be:7b:c5:69:
                    73:01:c5:f8:f7:c8:27:57:4e:78:d1:3c:53:83:32:
                    7f:19
                Exponent: 65537 (0x10001)
        X509v3 extensions:
            X509v3 Basic Constraints: 
                CA:FALSE
            X509v3 Subject Alternative Name: 
                IP Address:10.90.40.9, DNS:iccluster083.iccluster.epfl.ch
            X509v3 Subject Key Identifier: 
                51:0B:24:9B:3E:46:33:21:32:20:FC:5D:98:58:D4:D1:71:F0:85:B9
    Signature Algorithm: sha256WithRSAEncryption
         5c:b2:2b:75:32:b0:0b:15:1a:a8:da:f2:a4:c2:9b:31:8a:a0:
         a9:3e:18:c1:2f:2f:fd:4a:af:f8:d2:52:2f:08:da:76:d3:70:
         64:44:c6:f4:78:3e:8b:10:fc:a5:38:3e:df:5e:81:95:11:e9:
         19:33:9b:d0:b4:85:03:7f:81:12:0a:13:af:87:c2:6a:0f:cd:
         5a:53:f3:49:9a:09:53:69:de:99:61:3f:46:37:36:b3:f5:93:
         59:0a:a8:fa:c8:02:4d:bc:9c:c1:aa:aa:b8:92:7c:8a:ad:af:
         35:3e:05:7c:f8:0b:2d:c3:fe:a9:f8:76:62:a8:dc:d2:53:d4:
         0d:de:6c:b5:96:a2:46:97:4d:8b:39:67:b0:c0:bb:3f:ae:56:
         6d:67:72:18:da:92:6f:66:9f:92:0c:b6:da:75:80:df:32:aa:
         2e:fe:f3:fc:85:5f:72:1e:fd:5d:f5:04:97:f8:47:d9:30:8f:
         5c:e3:8c:b0:a8:bf:be:f4:0d:2a:b1:1b:5e:e4:74:f4:f2:ab:
         11:20:11:64:79:fa:03:c9:28:be:6c:66:ef:68:9a:c3:62:24:
         8b:ba:64:67:aa:71:c4:3b:e0:73:d9:01:88:d8:81:fa:7d:f2:
         21:49:d3:38:42:5a:d3:14:11:e8:61:15:ca:a1:33:db:bf:39:
         0b:4c:0e:22
-----BEGIN CERTIFICATE-----
MIIDkTCCAnmgAwIBAgIJAJD7OTewuo2dMA0GCSqGSIb3DQEBCwUAMD0xCzAJBgNV
BAYTAnh4MQowCAYDVQQIDAF4MQowCAYDVQQKDAF4MQowCAYDVQQLDAF4MQowCAYD
VQQDDAF4MB4XDTE4MDQxNzE2MzIxMloXDTE5MDQxNzE2MzIxMlowdDELMAkGA1UE
BhMCQ0gxCzAJBgNVBAgTAlZEMREwDwYDVQQHEwhMYXVzYW5uZTENMAsGA1UEChME
RVBGTDENMAsGA1UECxMETENBMTEnMCUGA1UEAxMeaWNjbHVzdGVyMDgzLmljY2x1
c3Rlci5lcGZsLmNoMIIBIjANBgkqhkiG9w0BAQEFAAOCAQ8AMIIBCgKCAQEAnWHm
YmoLiHrxAyXIZoAbizMynu3qedWG0Sdt7MTX8LmQI0WQeV8KQ4EbLpA2L6+XzERZ
9AyKNFo9CHENeXWq0SMF61wsOVhcGvO7GfwDjpF/1E8BQa2DYBh4E8Kx2g1R435A
gskh7rJNmo2eGGMiyaKRTHnRb+2gHuQYkFnHu6Qw1fNm35oFNYMq9iRn111eGbNN
qYbUwTUFFc//VKsNQTr4aUj55rYJhrsQkqtYPbjcThRzE/js/HyGaiinqv9UO2Vi
D8Eb96R4MT49cjJWIknzCcxGATG0the3nc2HegUtItwe2PzlsDShbL57xWlzAcX4
98gnV0540TxTgzJ/GQIDAQABo10wWzAJBgNVHRMEAjAAMC8GA1UdEQQoMCaHBApa
KAmCHmljY2x1c3RlcjA4My5pY2NsdXN0ZXIuZXBmbC5jaDAdBgNVHQ4EFgQUUQsk
mz5GMyEyIPxdmFjU0XHwhbkwDQYJKoZIhvcNAQELBQADggEBAFyyK3UysAsVGqja
8qTCmzGKoKk+GMEvL/1Kr/jSUi8I2nbTcGRExvR4PosQ/KU4Pt9egZUR6Rkzm9C0
hQN/gRIKE6+HwmoPzVpT80maCVNp3plhP0Y3NrP1k1kKqPrIAk28nMGqqriSfIqt
rzU+BXz4Cy3D/qn4dmKo3NJT1A3ebLWWokaXTYs5Z7DAuz+uVm1nchjakm9mn5IM
ttp1gN8yqi7+8/yFX3Ie/V31BJf4R9kwj1zjjLCov770DSqxG17kdPTyqxEgEWR5
+gPJKL5sZu9omsNiJIu6ZGeqccQ74HPZAYjYgfp98iFJ0zhCWtMUEehhFcqhM9u/
OQtMDiI=
-----END CERTIFICATE-----
