Certificate:
    Data:
        Version: 3 (0x2)
        Serial Number: 9253486240013161134 (0x806afcb54df312ae)
    Signature Algorithm: sha256WithRSAEncryption
        Issuer: C=xx, ST=x, O=x, OU=x, CN=x
        Validity
            Not Before: May  3 09:13:12 2018 GMT
            Not After : May  2 09:13:12 2021 GMT
        Subject: C=xx, ST=x, O=x, OU=x, CN=x
        Subject Public Key Info:
            Public Key Algorithm: rsaEncryption
                Public-Key: (2048 bit)
                Modulus:
                    00:b9:0d:1a:92:e7:e4:e5:04:c7:bc:63:e3:0e:d3:
                    c8:40:0d:c2:d3:5b:ce:36:58:8b:e4:16:0b:ff:06:
                    7a:c6:02:21:09:56:3b:15:c0:16:ae:b8:d0:e0:dd:
                    ef:4c:29:af:ae:6d:cc:ca:7b:36:88:c1:fc:95:a9:
                    29:85:ff:5d:b7:76:55:15:65:20:d4:5d:5f:fb:27:
                    31:99:80:27:57:19:c7:a8:83:7f:f6:35:03:6d:8a:
                    f5:98:e8:f7:82:e7:8d:af:fb:2a:fe:56:b4:da:6c:
                    8d:85:30:d2:e6:3b:e2:10:88:d2:46:db:cd:6e:fe:
                    52:6a:f5:94:ee:d2:72:33:a8:31:b8:20:e2:40:e0:
                    34:c0:97:35:db:44:f4:02:cc:f1:ba:c5:60:09:f0:
                    08:c7:66:df:80:7d:03:0a:4b:4e:04:f3:0c:0c:74:
                    fe:4a:61:20:23:f2:87:73:3c:b9:bc:fb:95:1f:96:
                    e8:4c:48:9b:f9:87:ef:a0:70:2b:d3:fb:8c:1e:62:
                    2f:06:38:00:f6:58:d9:a3:09:e2:09:48:ac:28:8a:
                    a7:7d:94:12:45:db:cd:95:78:54:a8:0f:81:d5:b7:
                    47:e8:38:59:54:0b:8b:b8:3a:55:2b:a1:19:48:04:
                    a9:dc:c2:de:f2:a0:b8:95:ca:42:63:21:de:50:a5:
                    1d:71
                Exponent: 65537 (0x10001)
        X509v3 extensions:
            X509v3 Subject Key Identifier: 
                8A:84:44:4B:5E:F2:E0:B7:B3:1E:C1:26:3B:A5:5D:C4:0E:D1:C9:0E
            X509v3 Authority Key Identifier: 
                keyid:8A:84:44:4B:5E:F2:E0:B7:B3:1E:C1:26:3B:A5:5D:C4:0E:D1:C9:0E

            X509v3 Basic Constraints: 
                CA:TRUE
    Signature Algorithm: sha256WithRSAEncryption
         a8:75:e3:0f:86:a0:9a:a8:c3:4f:6a:dc:4a:6e:ce:eb:e5:d0:
         70:de:d5:f0:da:7a:58:11:76:88:57:19:d8:94:ef:5d:41:1f:
         45:d4:71:62:45:b9:01:65:c9:1f:d0:48:d8:cf:da:09:f3:15:
         cf:56:8c:9b:13:a2:18:4b:39:11:7e:5c:d4:3b:8c:81:93:54:
         d3:6e:ef:56:88:3a:2f:e3:50:22:7a:0a:5f:c6:e5:cd:21:56:
         a8:82:c0:2c:0d:a4:16:6f:b2:8a:27:2d:73:b4:34:06:bc:22:
         f3:fa:b7:90:38:57:f6:c1:f8:98:c4:d0:77:7e:3f:24:68:bf:
         aa:bc:80:6a:9d:93:ef:81:b2:13:5f:1b:27:f3:33:70:eb:89:
         bc:7c:af:86:2e:37:6d:0c:a6:d8:9c:b5:f1:e1:6b:83:04:61:
         86:c3:80:ee:6b:3f:76:22:79:56:57:4c:8a:3e:0b:e1:62:46:
         ee:03:ef:e3:e6:21:1c:a5:ba:85:46:9c:a1:83:20:e8:2b:95:
         3e:8a:d4:a7:59:a6:ab:cd:05:f9:df:d6:9b:b0:31:68:19:27:
         90:ac:ba:7e:61:5b:e5:af:d2:eb:5e:92:43:78:7c:00:58:4a:
         3d:bf:6c:9a:fb:a6:c1:02:92:6b:6a:db:b2:e5:0e:0b:bb:51:
         a4:3c:99:2f
-----BEGIN CERTIFICATE-----
MIIDTTCCAjWgAwIBAgIJAIBq/LVN8xKuMA0GCSqGSIb3DQEBCwUAMD0xCzAJBgNV
BAYTAnh4MQowCAYDVQQIDAF4MQowCAYDVQQKDAF4MQowCAYDVQQLDAF4MQowCAYD
VQQDDAF4MB4XDTE4MDUwMzA5MTMxMloXDTIxMDUwMjA5MTMxMlowPTELMAkGA1UE
BhMCeHgxCjAIBgNVBAgMAXgxCjAIBgNVBAoMAXgxCjAIBgNVBAsMAXgxCjAIBgNV
BAMMAXgwggEiMA0GCSqGSIb3DQEBAQUAA4IBDwAwggEKAoIBAQC5DRqS5+TlBMe8
Y+MO08hADcLTW842WIvkFgv/BnrGAiEJVjsVwBauuNDg3e9MKa+ubczKezaIwfyV
qSmF/123dlUVZSDUXV/7JzGZgCdXGceog3/2NQNtivWY6PeC542v+yr+VrTabI2F
MNLmO+IQiNJG281u/lJq9ZTu0nIzqDG4IOJA4DTAlzXbRPQCzPG6xWAJ8AjHZt+A
fQMKS04E8wwMdP5KYSAj8odzPLm8+5UfluhMSJv5h++gcCvT+4weYi8GOAD2WNmj
CeIJSKwoiqd9lBJF282VeFSoD4HVt0foOFlUC4u4OlUroRlIBKncwt7yoLiVykJj
Id5QpR1xAgMBAAGjUDBOMB0GA1UdDgQWBBSKhERLXvLgt7MewSY7pV3EDtHJDjAf
BgNVHSMEGDAWgBSKhERLXvLgt7MewSY7pV3EDtHJDjAMBgNVHRMEBTADAQH/MA0G
CSqGSIb3DQEBCwUAA4IBAQCodeMPhqCaqMNPatxKbs7r5dBw3tXw2npYEXaIVxnY
lO9dQR9F1HFiRbkBZckf0EjYz9oJ8xXPVoybE6IYSzkRflzUO4yBk1TTbu9WiDov
41AiegpfxuXNIVaogsAsDaQWb7KKJy1ztDQGvCLz+reQOFf2wfiYxNB3fj8kaL+q
vIBqnZPvgbITXxsn8zNw64m8fK+GLjdtDKbYnLXx4WuDBGGGw4Duaz92InlWV0yK
PgvhYkbuA+/j5iEcpbqFRpyhgyDoK5U+itSnWaarzQX539absDFoGSeQrLp+YVvl
r9LrXpJDeHwAWEo9v2ya+6bBApJratuy5Q4Lu1GkPJkv
-----END CERTIFICATE-----
