Certificate:
    Data:
        Version: 3 (0x2)
        Serial Number:
            ed:8f:a8:6c:98:85:fc:89
    Signature Algorithm: sha256WithRSAEncryption
        Issuer: C=CH, ST=VD, O=EPFL, OU=LCA1, CN=MedCo
        Validity
            Not Before: Oct 31 15:45:55 2017 GMT
            Not After : Oct 31 15:45:55 2018 GMT
        Subject: C=CH, ST=VD, L=Lausanne, O=EPFL, OU=LCA1, CN=shrine-server-srv1
        Subject Public Key Info:
            Public Key Algorithm: rsaEncryption
                Public-Key: (2048 bit)
                Modulus:
                    00:81:74:69:2a:14:b6:6a:1a:06:2d:43:75:e3:8f:
                    83:b4:80:b0:66:9d:20:00:c7:c6:1a:49:e8:73:e8:
                    05:49:d3:22:37:16:3b:98:7c:35:5d:36:b9:05:ad:
                    21:29:20:6d:f2:09:44:ff:67:23:5b:1b:59:7a:4b:
                    70:61:cc:64:10:13:52:cc:62:84:5e:f4:28:1a:0b:
                    23:1a:bb:6e:ec:90:40:8b:11:19:45:42:59:76:b2:
                    5d:94:96:19:ec:ba:ec:90:61:df:dc:73:9d:9c:68:
                    cb:ab:90:3b:0f:ab:82:0b:46:3d:aa:02:b2:64:7d:
                    15:6d:fa:f2:60:9a:9e:73:0e:fb:65:0d:64:aa:c7:
                    c4:84:c2:07:4c:91:a1:55:a9:fe:7c:5c:a1:d0:08:
                    e1:23:4a:07:27:fb:5a:c8:2c:da:d9:78:a3:31:a8:
                    86:65:02:81:08:13:21:93:cf:03:1d:52:55:55:5d:
                    9d:ec:58:d7:5c:64:2a:5d:0f:1b:ca:61:81:87:39:
                    be:e9:24:1a:65:e8:72:3f:64:65:f2:f4:df:58:c5:
                    d1:ed:65:78:ef:25:57:87:09:91:0a:ba:65:92:9c:
                    99:8b:57:4e:98:42:cc:53:2c:15:d4:fa:92:08:78:
                    59:fa:93:16:4a:fa:40:3f:2b:17:85:aa:6c:f1:60:
                    cc:8f
                Exponent: 65537 (0x10001)
        X509v3 extensions:
            X509v3 Basic Constraints: 
                CA:FALSE
            Netscape Comment: 
                OpenSSL Generated Certificate
            X509v3 Subject Key Identifier: 
                53:D4:92:76:E0:61:9D:7D:71:DF:27:CC:53:6E:7A:85:8E:A3:66:62
            X509v3 Authority Key Identifier: 
                keyid:01:DE:49:6D:35:C5:54:41:F7:F0:31:B3:2D:11:5C:D6:B5:EB:4F:06

    Signature Algorithm: sha256WithRSAEncryption
         4f:93:6c:d1:23:ca:b2:ca:42:52:5d:57:18:90:f2:9a:6e:3a:
         c2:73:d5:bd:9e:be:ee:56:60:ca:23:12:8d:e7:d6:0c:99:4b:
         da:29:88:de:68:db:2a:e8:c4:9d:f7:57:fe:02:bc:52:07:0d:
         69:74:ca:b0:a4:13:b2:7d:67:d9:42:bf:62:14:9c:b9:4a:16:
         86:76:d5:7c:b5:4c:16:26:61:d6:3a:0d:0b:0d:22:53:70:c0:
         dd:48:88:23:b5:7e:3d:3a:a8:03:50:73:10:e7:35:47:23:5b:
         4c:02:68:75:da:ca:80:51:25:24:bd:39:22:8d:80:82:f4:42:
         3a:97:a8:15:dd:e7:90:bd:af:91:15:05:31:98:b9:eb:e8:e1:
         0c:15:b3:5c:21:98:74:7c:d0:29:79:a1:ad:0a:79:c5:a3:57:
         cb:69:0d:13:e6:1c:c7:03:89:e7:2b:9e:22:58:ee:14:63:cf:
         a3:05:3b:ac:9a:83:df:15:af:8f:eb:e5:35:35:b2:11:da:d6:
         f1:88:4c:99:a0:16:05:18:19:80:26:68:da:19:1f:59:b6:e9:
         12:24:da:d8:15:51:d8:61:4e:cd:7d:b5:73:4b:cf:6a:a5:73:
         9a:38:0e:24:ee:4f:26:45:ab:17:ff:a0:1a:29:ac:c0:f0:5d:
         12:fa:37:1a
-----BEGIN CERTIFICATE-----
MIIDrjCCApagAwIBAgIJAO2PqGyYhfyJMA0GCSqGSIb3DQEBCwUAMEgxCzAJBgNV
BAYTAkNIMQswCQYDVQQIDAJWRDENMAsGA1UECgwERVBGTDENMAsGA1UECwwETENB
MTEOMAwGA1UEAwwFTWVkQ28wHhcNMTcxMDMxMTU0NTU1WhcNMTgxMDMxMTU0NTU1
WjBoMQswCQYDVQQGEwJDSDELMAkGA1UECBMCVkQxETAPBgNVBAcTCExhdXNhbm5l
MQ0wCwYDVQQKEwRFUEZMMQ0wCwYDVQQLEwRMQ0ExMRswGQYDVQQDExJzaHJpbmUt
c2VydmVyLXNydjEwggEiMA0GCSqGSIb3DQEBAQUAA4IBDwAwggEKAoIBAQCBdGkq
FLZqGgYtQ3Xjj4O0gLBmnSAAx8YaSehz6AVJ0yI3FjuYfDVdNrkFrSEpIG3yCUT/
ZyNbG1l6S3BhzGQQE1LMYoRe9CgaCyMau27skECLERlFQll2sl2UlhnsuuyQYd/c
c52caMurkDsPq4ILRj2qArJkfRVt+vJgmp5zDvtlDWSqx8SEwgdMkaFVqf58XKHQ
COEjSgcn+1rILNrZeKMxqIZlAoEIEyGTzwMdUlVVXZ3sWNdcZCpdDxvKYYGHOb7p
JBpl6HI/ZGXy9N9YxdHtZXjvJVeHCZEKumWSnJmLV06YQsxTLBXU+pIIeFn6kxZK
+kA/KxeFqmzxYMyPAgMBAAGjezB5MAkGA1UdEwQCMAAwLAYJYIZIAYb4QgENBB8W
HU9wZW5TU0wgR2VuZXJhdGVkIENlcnRpZmljYXRlMB0GA1UdDgQWBBRT1JJ24GGd
fXHfJ8xTbnqFjqNmYjAfBgNVHSMEGDAWgBQB3kltNcVUQffwMbMtEVzWtetPBjAN
BgkqhkiG9w0BAQsFAAOCAQEAT5Ns0SPKsspCUl1XGJDymm46wnPVvZ6+7lZgyiMS
jefWDJlL2imI3mjbKujEnfdX/gK8UgcNaXTKsKQTsn1n2UK/YhScuUoWhnbVfLVM
FiZh1joNCw0iU3DA3UiII7V+PTqoA1BzEOc1RyNbTAJoddrKgFElJL05Io2AgvRC
OpeoFd3nkL2vkRUFMZi56+jhDBWzXCGYdHzQKXmhrQp5xaNXy2kNE+YcxwOJ5yue
IljuFGPPowU7rJqD3xWvj+vlNTWyEdrW8YhMmaAWBRgZgCZo2hkfWbbpEiTa2BVR
2GFOzX21c0vPaqVzmjgOJO5PJkWrF/+gGimswPBdEvo3Gg==
-----END CERTIFICATE-----
