Certificate:
    Data:
        Version: 3 (0x2)
        Serial Number:
            ed:8f:a8:6c:98:85:fc:88
    Signature Algorithm: sha256WithRSAEncryption
        Issuer: C=CH, ST=VD, O=EPFL, OU=LCA1, CN=MedCo
        Validity
            Not Before: Oct 31 15:45:22 2017 GMT
            Not After : Oct 31 15:45:22 2018 GMT
        Subject: C=CH, ST=VD, L=Lausanne, O=EPFL, OU=LCA1, CN=shrine-server-srv0
        Subject Public Key Info:
            Public Key Algorithm: rsaEncryption
                Public-Key: (2048 bit)
                Modulus:
                    00:c3:22:06:35:13:37:ea:e8:7a:4d:09:88:3f:5b:
                    a6:cd:23:2b:35:32:f3:31:6e:7f:e2:3f:a4:78:aa:
                    fc:ea:4b:cd:49:07:68:f6:b3:9d:a4:d1:a2:f5:96:
                    88:44:f3:0c:e0:6c:af:d1:a5:73:91:80:fb:74:9d:
                    a9:88:41:cc:d0:86:15:04:1f:41:5c:4b:77:da:82:
                    dc:4d:cd:6b:25:f8:44:62:7a:92:19:6c:31:7f:3f:
                    e6:b8:54:69:c4:30:9e:bb:12:2c:96:4e:90:a0:0a:
                    bf:f6:b0:b7:fd:7b:01:0f:47:c1:b8:46:a4:41:15:
                    05:90:eb:c5:b7:92:23:ab:99:ac:ba:31:67:59:6d:
                    49:53:e0:81:d5:6a:e0:31:be:86:26:3d:0f:46:2e:
                    ad:98:4f:7b:87:e2:4b:4d:ea:ce:5b:54:7e:6e:45:
                    f4:8c:16:1b:ff:c0:0a:7c:69:ff:5f:6c:a9:10:df:
                    f8:69:71:55:d7:06:92:8c:0c:22:b4:d3:dd:14:c5:
                    73:20:ba:9f:7e:4c:2e:8e:7b:23:2b:5e:45:ac:cc:
                    db:66:08:dc:e8:6b:20:ec:2e:e2:ea:a2:e9:c1:74:
                    8a:b6:cf:d0:7c:cd:c7:52:46:c2:17:82:df:56:df:
                    0b:b1:37:58:63:12:1c:7b:49:8a:67:2a:d1:2e:f6:
                    da:35
                Exponent: 65537 (0x10001)
        X509v3 extensions:
            X509v3 Basic Constraints: 
                CA:FALSE
            Netscape Comment: 
                OpenSSL Generated Certificate
            X509v3 Subject Key Identifier: 
                4F:C1:CB:D7:D8:FB:60:AC:5D:C7:28:02:11:10:0C:DB:A4:FA:E0:2C
            X509v3 Authority Key Identifier: 
                keyid:01:DE:49:6D:35:C5:54:41:F7:F0:31:B3:2D:11:5C:D6:B5:EB:4F:06

    Signature Algorithm: sha256WithRSAEncryption
         3a:cf:c1:42:a2:6d:b8:18:a0:3b:19:3b:42:ec:42:5e:99:47:
         2e:d9:0e:eb:05:3c:dd:c6:70:60:77:e6:87:e2:35:d0:d3:ec:
         a7:03:d5:4c:71:c4:e6:cb:57:01:b5:4a:9e:fc:c6:4a:15:99:
         af:14:e6:b0:a0:c9:e0:01:9d:e9:f9:e8:9a:e3:e4:c3:d5:9d:
         9e:cf:d1:3a:b2:4d:37:ca:55:91:16:ca:4a:e8:af:e0:24:52:
         c8:97:16:14:5a:bd:42:fe:79:3d:9e:ec:c0:2a:81:a1:d9:83:
         d1:eb:6a:4c:16:f3:57:9a:fc:29:4c:15:00:4a:f2:d9:2f:84:
         8e:af:0b:f3:39:4c:fb:2e:9b:04:7e:3f:2d:05:76:4c:85:af:
         dc:aa:f5:05:10:ef:6a:59:2b:d9:c3:6c:bd:8d:c0:39:0d:93:
         bf:4c:22:54:f6:46:13:3c:8f:bd:86:db:83:16:0e:c4:69:fb:
         59:34:24:5a:a5:bc:e1:a7:f0:21:f0:90:f2:87:8e:da:8a:3b:
         dc:d9:56:0d:d5:eb:37:c8:27:ac:b6:5f:e5:30:2e:b6:de:3a:
         e6:8e:df:b7:f5:ca:60:b0:bc:96:34:11:5d:cc:87:7c:e6:42:
         ca:ce:0b:9f:c1:68:c8:2f:e6:3d:64:9b:02:e9:c6:f2:20:bb:
         17:3e:d9:5d
-----BEGIN CERTIFICATE-----
MIIDrjCCApagAwIBAgIJAO2PqGyYhfyIMA0GCSqGSIb3DQEBCwUAMEgxCzAJBgNV
BAYTAkNIMQswCQYDVQQIDAJWRDENMAsGA1UECgwERVBGTDENMAsGA1UECwwETENB
MTEOMAwGA1UEAwwFTWVkQ28wHhcNMTcxMDMxMTU0NTIyWhcNMTgxMDMxMTU0NTIy
WjBoMQswCQYDVQQGEwJDSDELMAkGA1UECBMCVkQxETAPBgNVBAcTCExhdXNhbm5l
MQ0wCwYDVQQKEwRFUEZMMQ0wCwYDVQQLEwRMQ0ExMRswGQYDVQQDExJzaHJpbmUt
c2VydmVyLXNydjAwggEiMA0GCSqGSIb3DQEBAQUAA4IBDwAwggEKAoIBAQDDIgY1
Ezfq6HpNCYg/W6bNIys1MvMxbn/iP6R4qvzqS81JB2j2s52k0aL1lohE8wzgbK/R
pXORgPt0namIQczQhhUEH0FcS3fagtxNzWsl+ERiepIZbDF/P+a4VGnEMJ67EiyW
TpCgCr/2sLf9ewEPR8G4RqRBFQWQ68W3kiOrmay6MWdZbUlT4IHVauAxvoYmPQ9G
Lq2YT3uH4ktN6s5bVH5uRfSMFhv/wAp8af9fbKkQ3/hpcVXXBpKMDCK0090UxXMg
up9+TC6OeyMrXkWszNtmCNzoayDsLuLqounBdIq2z9B8zcdSRsIXgt9W3wuxN1hj
Ehx7SYpnKtEu9to1AgMBAAGjezB5MAkGA1UdEwQCMAAwLAYJYIZIAYb4QgENBB8W
HU9wZW5TU0wgR2VuZXJhdGVkIENlcnRpZmljYXRlMB0GA1UdDgQWBBRPwcvX2Ptg
rF3HKAIREAzbpPrgLDAfBgNVHSMEGDAWgBQB3kltNcVUQffwMbMtEVzWtetPBjAN
BgkqhkiG9w0BAQsFAAOCAQEAOs/BQqJtuBigOxk7QuxCXplHLtkO6wU83cZwYHfm
h+I10NPspwPVTHHE5stXAbVKnvzGShWZrxTmsKDJ4AGd6fnomuPkw9Wdns/ROrJN
N8pVkRbKSuiv4CRSyJcWFFq9Qv55PZ7swCqBodmD0etqTBbzV5r8KUwVAEry2S+E
jq8L8zlM+y6bBH4/LQV2TIWv3Kr1BRDvalkr2cNsvY3AOQ2Tv0wiVPZGEzyPvYbb
gxYOxGn7WTQkWqW84afwIfCQ8oeO2oo73NlWDdXrN8gnrLZf5TAutt465o7ft/XK
YLC8ljQRXcyHfOZCys4Ln8FoyC/mPWSbAunG8iC7Fz7ZXQ==
-----END CERTIFICATE-----
