Certificate:
    Data:
        Version: 3 (0x2)
        Serial Number: 17153950821878998991 (0xee0f1363109e27cf)
    Signature Algorithm: sha256WithRSAEncryption
        Issuer: C=CH, ST=VD, O=EPFL, OU=LCA1, CN=MedCO
        Validity
            Not Before: Aug 20 14:23:57 2018 GMT
            Not After : Aug 20 14:23:57 2019 GMT
        Subject: C=CH, ST=VD, L=Lausanne, O=EPFL, OU=LCA1, CN=iccluster069.iccluster.epfl.ch
        Subject Public Key Info:
            Public Key Algorithm: rsaEncryption
                Public-Key: (2048 bit)
                Modulus:
                    00:96:d3:8f:0b:37:ca:a3:aa:27:7d:b1:9d:1f:c3:
                    6c:be:8c:a5:dc:61:9f:f8:a4:fe:a5:46:4a:ed:8e:
                    73:ef:3f:8b:d5:83:ac:60:2e:03:c8:d7:ee:28:d8:
                    af:98:77:07:9d:8f:e3:b5:bb:a2:05:83:ea:97:cb:
                    b7:b2:b6:b8:ea:5f:ef:d1:f7:6c:63:19:fe:6a:a1:
                    f5:c8:d6:42:e1:f7:a4:4d:7f:47:10:70:f2:f0:ca:
                    42:59:66:72:a6:66:15:09:ea:2d:9f:57:06:b4:18:
                    a2:f9:f0:7a:21:98:6e:8e:69:51:84:9c:d6:41:de:
                    48:ef:8c:bc:bf:fa:60:33:0e:c7:01:7b:46:2d:2f:
                    f3:e8:e0:de:6f:8e:10:c1:a4:0a:29:ff:72:0f:d2:
                    01:af:4d:33:5e:dd:1a:f1:37:f4:e3:0d:0c:e6:d7:
                    6e:26:3a:6d:e0:4e:d3:94:13:98:cd:73:7f:f7:f6:
                    dc:b6:6e:89:34:9f:e0:d0:56:1a:b5:b4:b0:fb:7b:
                    08:1a:6f:be:e3:df:37:b9:6b:0b:07:2a:b0:fe:38:
                    c4:70:81:ff:40:f0:d8:6a:f1:ec:6d:cf:76:c3:08:
                    8b:57:12:d6:78:5d:92:35:f5:01:9f:bd:12:5c:fd:
                    f3:79:6e:8c:bd:a7:bb:c0:83:6e:93:10:00:be:bb:
                    e5:17
                Exponent: 65537 (0x10001)
        X509v3 extensions:
            X509v3 Basic Constraints: 
                CA:FALSE
            X509v3 Subject Alternative Name: 
                IP Address:10.90.39.20, DNS:iccluster069.iccluster.epfl.ch
            X509v3 Subject Key Identifier: 
                EF:B4:11:3A:65:A0:5A:58:8A:CF:29:CE:EB:4C:F3:67:04:8A:82:78
    Signature Algorithm: sha256WithRSAEncryption
         0c:d0:ad:f7:21:2c:6e:4c:a2:dd:e1:9e:0f:f0:99:e6:e6:31:
         f5:00:30:25:11:d9:42:63:ef:5d:3f:8a:c5:15:c6:b9:82:12:
         d6:5f:5e:8a:6a:ae:7b:3f:28:f0:e6:b0:60:1f:ce:3c:05:aa:
         93:10:5c:fc:54:5f:6a:3f:63:0c:52:ce:5c:c8:e2:41:9e:41:
         2f:bf:ce:6d:fa:63:e9:92:7b:4c:72:6d:18:26:36:6e:98:ef:
         3e:9a:07:a0:d5:4c:f8:13:01:3b:00:29:6d:e3:79:3a:32:5a:
         0c:8d:56:2e:4c:c0:a8:e0:a0:c1:59:d3:91:43:a9:cb:82:ba:
         12:95:28:58:72:c0:f4:6b:d5:1a:f3:a1:6c:8a:18:07:56:6e:
         93:ab:dd:22:20:69:d2:70:9f:52:1f:a6:39:3d:45:af:8b:85:
         2a:16:26:3e:54:dc:88:e2:ba:f0:49:72:ea:dd:8a:51:a4:f0:
         74:55:76:ec:35:72:2f:13:9b:ed:2d:48:87:a1:91:be:1f:1b:
         18:15:15:ec:7b:09:31:d2:b6:35:d8:60:52:82:dc:25:c7:12:
         93:cd:44:24:6f:b4:c1:60:8b:a6:f6:e8:4a:2c:44:0f:b4:7f:
         fa:d0:82:35:13:16:58:ed:51:ca:aa:9d:4e:b9:b4:65:9e:8c:
         c6:e3:e0:cd
-----BEGIN CERTIFICATE-----
MIIDnDCCAoSgAwIBAgIJAO4PE2MQnifPMA0GCSqGSIb3DQEBCwUAMEgxCzAJBgNV
BAYTAkNIMQswCQYDVQQIDAJWRDENMAsGA1UECgwERVBGTDENMAsGA1UECwwETENB
MTEOMAwGA1UEAwwFTWVkQ08wHhcNMTgwODIwMTQyMzU3WhcNMTkwODIwMTQyMzU3
WjB0MQswCQYDVQQGEwJDSDELMAkGA1UECBMCVkQxETAPBgNVBAcTCExhdXNhbm5l
MQ0wCwYDVQQKEwRFUEZMMQ0wCwYDVQQLEwRMQ0ExMScwJQYDVQQDEx5pY2NsdXN0
ZXIwNjkuaWNjbHVzdGVyLmVwZmwuY2gwggEiMA0GCSqGSIb3DQEBAQUAA4IBDwAw
ggEKAoIBAQCW048LN8qjqid9sZ0fw2y+jKXcYZ/4pP6lRkrtjnPvP4vVg6xgLgPI
1+4o2K+Ydwedj+O1u6IFg+qXy7eytrjqX+/R92xjGf5qofXI1kLh96RNf0cQcPLw
ykJZZnKmZhUJ6i2fVwa0GKL58HohmG6OaVGEnNZB3kjvjLy/+mAzDscBe0YtL/Po
4N5vjhDBpAop/3IP0gGvTTNe3RrxN/TjDQzm124mOm3gTtOUE5jNc3/39ty2bok0
n+DQVhq1tLD7ewgab77j3ze5awsHKrD+OMRwgf9A8Nhq8extz3bDCItXEtZ4XZI1
9QGfvRJc/fN5boy9p7vAg26TEAC+u+UXAgMBAAGjXTBbMAkGA1UdEwQCMAAwLwYD
VR0RBCgwJocEClonFIIeaWNjbHVzdGVyMDY5LmljY2x1c3Rlci5lcGZsLmNoMB0G
A1UdDgQWBBTvtBE6ZaBaWIrPKc7rTPNnBIqCeDANBgkqhkiG9w0BAQsFAAOCAQEA
DNCt9yEsbkyi3eGeD/CZ5uYx9QAwJRHZQmPvXT+KxRXGuYIS1l9eimquez8o8Oaw
YB/OPAWqkxBc/FRfaj9jDFLOXMjiQZ5BL7/Obfpj6ZJ7THJtGCY2bpjvPpoHoNVM
+BMBOwApbeN5OjJaDI1WLkzAqOCgwVnTkUOpy4K6EpUoWHLA9GvVGvOhbIoYB1Zu
k6vdIiBp0nCfUh+mOT1Fr4uFKhYmPlTciOK68Ely6t2KUaTwdFV27DVyLxOb7S1I
h6GRvh8bGBUV7HsJMdK2NdhgUoLcJccSk81EJG+0wWCLpvboSixED7R/+tCCNRMW
WO1RyqqdTrm0ZZ6MxuPgzQ==
-----END CERTIFICATE-----
