Certificate:
    Data:
        Version: 3 (0x2)
        Serial Number: 17153950821878998992 (0xee0f1363109e27d0)
    Signature Algorithm: sha256WithRSAEncryption
        Issuer: C=CH, ST=VD, O=EPFL, OU=LCA1, CN=MedCO
        Validity
            Not Before: Aug 20 14:24:02 2018 GMT
            Not After : Aug 20 14:24:02 2019 GMT
        Subject: C=CH, ST=VD, L=Lausanne, O=EPFL, OU=LCA1, CN=iccluster070.iccluster.epfl.ch
        Subject Public Key Info:
            Public Key Algorithm: rsaEncryption
                Public-Key: (2048 bit)
                Modulus:
                    00:a1:1e:f5:0c:9b:0f:f5:74:09:4f:1c:bc:5a:0c:
                    11:81:9f:9c:e6:64:a0:c7:a7:e7:f4:b6:cb:57:d4:
                    a8:d0:66:83:b0:3d:65:52:7f:80:1f:04:4e:69:cd:
                    4e:54:64:72:89:73:d5:c8:52:72:89:19:c7:1e:cc:
                    af:85:00:9d:23:99:3c:42:df:ee:3a:7d:3c:13:5a:
                    9b:3d:ec:f6:13:de:1c:9c:86:d2:e1:15:a0:66:5a:
                    7f:0d:f0:eb:89:3b:45:4f:13:96:60:30:6d:a3:8e:
                    d4:14:ce:8f:3b:e0:2e:c9:a8:1a:c1:14:4c:1f:95:
                    47:35:7f:82:41:19:fb:a6:94:20:08:08:7b:40:a3:
                    ff:2f:88:b2:28:b9:b0:8a:ea:c2:dc:c3:7c:a5:67:
                    64:a9:27:56:32:cf:72:81:a3:bf:21:30:a7:2c:90:
                    0a:d6:2c:a9:e6:be:f5:56:c6:ab:82:22:29:f8:91:
                    2c:9f:eb:a9:ec:53:72:90:f6:ba:15:17:75:dd:5e:
                    cc:d7:47:79:70:e2:1d:b4:b1:da:33:25:6d:5b:9e:
                    89:dd:47:e0:a1:c8:93:39:6f:9b:6c:fe:09:75:f9:
                    66:1b:7c:72:ff:df:4c:76:5b:e6:5a:6f:9f:4d:51:
                    36:85:58:11:20:8a:b9:11:0d:76:e2:dc:eb:1c:8f:
                    3e:c1
                Exponent: 65537 (0x10001)
        X509v3 extensions:
            X509v3 Basic Constraints: 
                CA:FALSE
            X509v3 Subject Alternative Name: 
                IP Address:10.90.39.21, DNS:iccluster070.iccluster.epfl.ch
            X509v3 Subject Key Identifier: 
                60:F3:2F:7B:71:C8:98:8D:7E:E0:B5:B2:04:37:54:4A:A2:3E:28:12
    Signature Algorithm: sha256WithRSAEncryption
         89:b8:10:1c:c3:f2:78:0b:49:82:3e:0c:6f:95:ff:17:50:8d:
         88:91:91:70:59:1f:98:3d:03:3a:7b:a2:b5:12:63:32:90:8c:
         51:b8:96:8e:7f:31:27:9f:82:63:5b:6c:79:7c:09:1b:87:b0:
         d4:0a:dc:b2:a5:c0:3d:64:ca:e0:da:92:d3:e2:84:21:45:6b:
         45:35:f6:a7:41:d9:b6:94:5e:da:e2:cc:43:6b:34:3e:4f:5d:
         59:43:12:1c:5e:8d:51:f2:7f:b9:7d:b0:6e:04:0c:b2:22:96:
         13:ab:55:b9:68:d1:cd:72:2e:34:1d:84:f8:cd:c2:f3:cb:61:
         dd:e2:c5:3a:2a:93:11:6e:c9:c1:d5:dd:f9:c1:e2:8c:ff:63:
         b0:e8:3b:95:93:e1:09:20:df:9a:ac:a4:ce:8f:0f:69:21:72:
         f1:cd:7d:66:4b:94:1e:5f:d9:30:af:eb:fc:90:a9:64:d8:a8:
         b6:8e:49:e3:a4:6e:3e:8c:40:ff:bd:7b:a8:1c:56:1f:77:6e:
         36:05:34:b7:84:f6:84:a3:82:79:96:d8:9b:a7:77:62:b9:37:
         5f:c6:e3:82:1a:4f:86:42:8e:d3:31:71:44:c3:45:ed:f0:49:
         99:8d:08:50:67:12:82:53:74:bf:8d:c9:70:bd:5f:fd:b4:1f:
         6d:86:b7:b8
-----BEGIN CERTIFICATE-----
MIIDnDCCAoSgAwIBAgIJAO4PE2MQnifQMA0GCSqGSIb3DQEBCwUAMEgxCzAJBgNV
BAYTAkNIMQswCQYDVQQIDAJWRDENMAsGA1UECgwERVBGTDENMAsGA1UECwwETENB
MTEOMAwGA1UEAwwFTWVkQ08wHhcNMTgwODIwMTQyNDAyWhcNMTkwODIwMTQyNDAy
WjB0MQswCQYDVQQGEwJDSDELMAkGA1UECBMCVkQxETAPBgNVBAcTCExhdXNhbm5l
MQ0wCwYDVQQKEwRFUEZMMQ0wCwYDVQQLEwRMQ0ExMScwJQYDVQQDEx5pY2NsdXN0
ZXIwNzAuaWNjbHVzdGVyLmVwZmwuY2gwggEiMA0GCSqGSIb3DQEBAQUAA4IBDwAw
ggEKAoIBAQChHvUMmw/1dAlPHLxaDBGBn5zmZKDHp+f0tstX1KjQZoOwPWVSf4Af
BE5pzU5UZHKJc9XIUnKJGccezK+FAJ0jmTxC3+46fTwTWps97PYT3hychtLhFaBm
Wn8N8OuJO0VPE5ZgMG2jjtQUzo874C7JqBrBFEwflUc1f4JBGfumlCAICHtAo/8v
iLIoubCK6sLcw3ylZ2SpJ1Yyz3KBo78hMKcskArWLKnmvvVWxquCIin4kSyf66ns
U3KQ9roVF3XdXszXR3lw4h20sdozJW1bnondR+ChyJM5b5ts/gl1+WYbfHL/30x2
W+Zab59NUTaFWBEgirkRDXbi3Oscjz7BAgMBAAGjXTBbMAkGA1UdEwQCMAAwLwYD
VR0RBCgwJocEClonFYIeaWNjbHVzdGVyMDcwLmljY2x1c3Rlci5lcGZsLmNoMB0G
A1UdDgQWBBRg8y97cciYjX7gtbIEN1RKoj4oEjANBgkqhkiG9w0BAQsFAAOCAQEA
ibgQHMPyeAtJgj4Mb5X/F1CNiJGRcFkfmD0DOnuitRJjMpCMUbiWjn8xJ5+CY1ts
eXwJG4ew1ArcsqXAPWTK4NqS0+KEIUVrRTX2p0HZtpRe2uLMQ2s0Pk9dWUMSHF6N
UfJ/uX2wbgQMsiKWE6tVuWjRzXIuNB2E+M3C88th3eLFOiqTEW7JwdXd+cHijP9j
sOg7lZPhCSDfmqykzo8PaSFy8c19ZkuUHl/ZMK/r/JCpZNioto5J46RuPoxA/717
qBxWH3duNgU0t4T2hKOCeZbYm6d3Yrk3X8bjghpPhkKO0zFxRMNF7fBJmY0IUGcS
glN0v43JcL1f/bQfbYa3uA==
-----END CERTIFICATE-----
