Certificate:
    Data:
        Version: 3 (0x2)
        Serial Number: 9234825056991670434 (0x8028b0760cdd70a2)
    Signature Algorithm: sha256WithRSAEncryption
        Issuer: C=xx, ST=x, O=x, OU=x, CN=x
        Validity
            Not Before: May  3 09:20:09 2018 GMT
            Not After : May  3 09:20:09 2019 GMT
        Subject: C=CH, ST=VD, L=Lausanne, O=EPFL, OU=LCA1, CN=iccluster056.iccluster.epfl.ch
        Subject Public Key Info:
            Public Key Algorithm: rsaEncryption
                Public-Key: (2048 bit)
                Modulus:
                    00:8c:62:0f:f5:85:d8:69:7a:88:b0:05:f0:92:cb:
                    53:72:ce:e5:16:e8:de:ab:5f:b4:93:30:db:d8:1e:
                    84:1d:dd:0c:d5:a5:55:5a:09:e6:6d:49:33:5f:b8:
                    ab:ae:83:20:78:ac:c5:23:94:3c:ba:dc:44:38:f1:
                    fe:e7:7d:bd:2b:be:30:2f:74:5f:92:88:d0:15:b4:
                    81:97:35:8d:13:c8:ed:31:19:e1:71:c8:6b:e1:24:
                    d8:c9:c0:e4:6f:1f:80:37:ce:34:0a:6d:84:a8:36:
                    44:9b:90:6a:4c:52:52:a3:23:9b:b3:1c:25:0a:4b:
                    dd:a4:6d:0e:ae:95:bb:13:54:5e:4f:81:19:eb:6b:
                    de:14:17:57:65:6f:b7:a4:78:db:85:39:f2:f3:d0:
                    d4:26:d0:a0:c8:21:ed:57:2f:90:96:f0:9e:9d:a2:
                    f5:4b:c9:c0:55:e5:81:8a:d9:2a:7b:f3:5c:b4:a2:
                    03:1a:27:92:fc:37:5d:59:ec:b2:dc:16:9c:16:26:
                    de:9c:34:93:5a:47:53:51:e2:69:d6:37:f7:9a:9e:
                    30:41:a1:40:d3:d4:64:13:64:33:b1:9f:ad:c7:aa:
                    e5:2d:b1:d6:20:62:22:5f:3f:af:c0:bd:6b:a8:46:
                    e0:18:6b:76:29:b7:3b:59:75:23:66:ee:8f:8e:ab:
                    6d:37
                Exponent: 65537 (0x10001)
        X509v3 extensions:
            X509v3 Basic Constraints: 
                CA:FALSE
            X509v3 Subject Alternative Name: 
                IP Address:10.90.39.7, DNS:iccluster056.iccluster.epfl.ch
            X509v3 Subject Key Identifier: 
                AC:BF:BC:86:2C:18:C1:75:55:6C:53:03:EB:47:42:CC:6E:89:7A:D6
    Signature Algorithm: sha256WithRSAEncryption
         84:e1:fc:48:cb:91:f6:14:7d:d0:00:cc:5e:e1:de:92:a5:bb:
         2f:06:02:f1:4a:9b:55:6b:6b:3c:c0:44:8a:52:88:3e:d7:fb:
         28:17:2b:5f:15:65:ef:b9:5f:43:46:34:f6:14:5a:47:78:43:
         5a:4b:8e:c6:29:d7:a2:32:c3:fb:8f:2d:92:39:b3:52:ea:9e:
         ee:66:57:f5:37:75:d8:42:dd:00:87:ab:c1:a3:94:ef:5d:3d:
         40:d7:27:d7:d0:bb:a4:be:11:59:91:71:b8:b4:77:5c:d2:fd:
         7b:97:89:aa:c0:21:ab:41:78:3a:83:cd:55:90:ca:6b:6b:af:
         11:ef:5f:72:5c:d0:df:89:45:33:49:ce:6e:8f:2b:4c:a2:44:
         3e:35:b0:b0:b3:44:b1:50:a2:fa:6a:45:c4:ff:1d:f2:1a:fb:
         15:df:f2:3f:5b:eb:3a:6d:6b:b1:77:0c:b0:a5:18:53:34:44:
         fe:20:34:89:17:f5:d1:4d:f0:a8:bf:0e:2b:1a:54:17:06:04:
         f3:b8:04:a8:94:21:a5:0c:20:49:03:6b:05:16:ba:e4:f2:a5:
         7a:fc:f3:bc:c4:ab:5e:2c:1e:1b:c1:69:e1:56:8f:c8:a8:f5:
         c5:3c:29:b7:39:b0:96:f5:cb:69:48:0c:9a:c4:ef:64:d6:2b:
         31:69:b9:07
-----BEGIN CERTIFICATE-----
MIIDkTCCAnmgAwIBAgIJAIAosHYM3XCiMA0GCSqGSIb3DQEBCwUAMD0xCzAJBgNV
BAYTAnh4MQowCAYDVQQIDAF4MQowCAYDVQQKDAF4MQowCAYDVQQLDAF4MQowCAYD
VQQDDAF4MB4XDTE4MDUwMzA5MjAwOVoXDTE5MDUwMzA5MjAwOVowdDELMAkGA1UE
BhMCQ0gxCzAJBgNVBAgTAlZEMREwDwYDVQQHEwhMYXVzYW5uZTENMAsGA1UEChME
RVBGTDENMAsGA1UECxMETENBMTEnMCUGA1UEAxMeaWNjbHVzdGVyMDU2LmljY2x1
c3Rlci5lcGZsLmNoMIIBIjANBgkqhkiG9w0BAQEFAAOCAQ8AMIIBCgKCAQEAjGIP
9YXYaXqIsAXwkstTcs7lFujeq1+0kzDb2B6EHd0M1aVVWgnmbUkzX7irroMgeKzF
I5Q8utxEOPH+5329K74wL3RfkojQFbSBlzWNE8jtMRnhcchr4STYycDkbx+AN840
Cm2EqDZEm5BqTFJSoyObsxwlCkvdpG0OrpW7E1ReT4EZ62veFBdXZW+3pHjbhTny
89DUJtCgyCHtVy+QlvCenaL1S8nAVeWBitkqe/NctKIDGieS/DddWeyy3BacFibe
nDSTWkdTUeJp1jf3mp4wQaFA09RkE2QzsZ+tx6rlLbHWIGIiXz+vwL1rqEbgGGt2
Kbc7WXUjZu6PjqttNwIDAQABo10wWzAJBgNVHRMEAjAAMC8GA1UdEQQoMCaHBApa
JweCHmljY2x1c3RlcjA1Ni5pY2NsdXN0ZXIuZXBmbC5jaDAdBgNVHQ4EFgQUrL+8
hiwYwXVVbFMD60dCzG6JetYwDQYJKoZIhvcNAQELBQADggEBAITh/EjLkfYUfdAA
zF7h3pKluy8GAvFKm1VrazzARIpSiD7X+ygXK18VZe+5X0NGNPYUWkd4Q1pLjsYp
16Iyw/uPLZI5s1Lqnu5mV/U3ddhC3QCHq8GjlO9dPUDXJ9fQu6S+EVmRcbi0d1zS
/XuXiarAIatBeDqDzVWQymtrrxHvX3Jc0N+JRTNJzm6PK0yiRD41sLCzRLFQovpq
RcT/HfIa+xXf8j9b6zpta7F3DLClGFM0RP4gNIkX9dFN8Ki/DisaVBcGBPO4BKiU
IaUMIEkDawUWuuTypXr887zEq14sHhvBaeFWj8io9cU8Kbc5sJb1y2lIDJrE72TW
KzFpuQc=
-----END CERTIFICATE-----
