Certificate:
    Data:
        Version: 3 (0x2)
        Serial Number: 9234825056991670436 (0x8028b0760cdd70a4)
    Signature Algorithm: sha256WithRSAEncryption
        Issuer: C=xx, ST=x, O=x, OU=x, CN=x
        Validity
            Not Before: May  3 09:20:21 2018 GMT
            Not After : May  3 09:20:21 2019 GMT
        Subject: C=CH, ST=VD, L=Lausanne, O=EPFL, OU=LCA1, CN=iccluster072.iccluster.epfl.ch
        Subject Public Key Info:
            Public Key Algorithm: rsaEncryption
                Public-Key: (2048 bit)
                Modulus:
                    00:97:46:38:03:16:b6:fa:8d:7c:be:91:94:8b:c8:
                    0a:8f:e6:00:04:16:7b:53:ab:bb:ba:af:70:c7:7f:
                    f1:43:c8:49:86:d7:1a:99:91:36:ef:dc:20:3a:c7:
                    29:4e:05:99:86:27:f9:c9:c2:a4:ba:f7:64:c2:7b:
                    22:30:0f:47:cb:86:88:db:01:be:c2:f3:a8:22:1f:
                    f5:67:e6:38:3d:09:7f:8a:37:7b:1a:44:b9:82:13:
                    0a:e1:79:fe:bf:18:2e:7b:19:06:9e:c3:83:1c:51:
                    c6:66:3d:23:52:ba:43:4c:c3:bd:09:4a:23:c4:91:
                    eb:f5:0d:22:8b:ae:c0:31:7e:30:20:f3:b7:cb:64:
                    e2:7b:85:48:4e:b9:98:a5:0b:ae:8a:74:75:2a:ea:
                    85:47:52:02:bf:c5:1e:b7:42:85:19:6b:17:24:46:
                    88:7c:40:72:0e:5c:78:b4:a8:7b:34:cb:ea:d0:d4:
                    10:c5:20:e8:b1:73:5d:2a:21:bc:1b:4c:b1:e5:93:
                    aa:1e:29:2c:b3:c7:ed:19:5e:50:45:08:3a:43:fa:
                    91:ed:08:7f:3f:dc:d6:90:54:53:55:28:94:c4:34:
                    69:bc:e8:99:84:fc:05:2a:11:41:91:87:49:ac:f2:
                    70:64:60:ac:a2:61:91:04:b7:af:b9:63:b4:0b:71:
                    27:fb
                Exponent: 65537 (0x10001)
        X509v3 extensions:
            X509v3 Basic Constraints: 
                CA:FALSE
            X509v3 Subject Alternative Name: 
                IP Address:10.90.39.23, DNS:iccluster072.iccluster.epfl.ch
            X509v3 Subject Key Identifier: 
                B7:83:B4:24:84:05:69:ED:DE:0A:F7:4B:1A:EF:1A:89:EF:35:87:EF
    Signature Algorithm: sha256WithRSAEncryption
         01:e9:c7:94:f8:a1:4c:8f:8f:9b:92:e0:ce:15:50:cf:11:f7:
         08:aa:6f:fa:a4:9a:c2:78:6e:8c:ad:dd:85:39:17:2b:f6:82:
         ee:c1:d6:19:c3:b6:e4:e5:ea:e1:b1:1b:4a:e6:82:c9:76:40:
         8b:dd:d4:3f:f0:a7:62:9d:68:3c:ee:7f:32:11:82:31:0e:df:
         33:1d:6f:7e:ef:75:9d:f1:45:cb:2c:98:e3:4f:8c:11:a3:02:
         cc:71:0e:57:92:dc:9f:e5:de:ba:53:66:3c:f5:d9:d3:2b:a9:
         0d:3c:77:7a:cd:ef:d8:38:82:76:cc:9d:59:56:df:ff:b3:8f:
         d8:51:d7:1e:4d:e1:fb:b2:f0:4d:d8:ff:8c:93:71:5c:47:72:
         ba:71:70:58:05:54:a2:f1:8d:0c:46:4c:39:8f:10:2a:f3:b7:
         d2:be:3e:17:2b:8f:30:90:5c:80:d7:27:49:b3:84:85:ef:4e:
         f8:4d:d6:8d:b2:84:15:d7:03:cb:cb:f5:98:08:11:da:bf:22:
         1a:38:36:01:4c:91:e3:75:d8:a3:f9:78:ed:f0:10:4b:e3:d4:
         22:e9:7e:42:17:e0:89:8a:b0:04:c3:38:9d:7b:18:05:44:05:
         d7:b8:70:c0:7f:c7:55:77:20:b5:52:78:20:f4:15:a1:f6:1f:
         03:c8:04:a8
-----BEGIN CERTIFICATE-----
MIIDkTCCAnmgAwIBAgIJAIAosHYM3XCkMA0GCSqGSIb3DQEBCwUAMD0xCzAJBgNV
BAYTAnh4MQowCAYDVQQIDAF4MQowCAYDVQQKDAF4MQowCAYDVQQLDAF4MQowCAYD
VQQDDAF4MB4XDTE4MDUwMzA5MjAyMVoXDTE5MDUwMzA5MjAyMVowdDELMAkGA1UE
BhMCQ0gxCzAJBgNVBAgTAlZEMREwDwYDVQQHEwhMYXVzYW5uZTENMAsGA1UEChME
RVBGTDENMAsGA1UECxMETENBMTEnMCUGA1UEAxMeaWNjbHVzdGVyMDcyLmljY2x1
c3Rlci5lcGZsLmNoMIIBIjANBgkqhkiG9w0BAQEFAAOCAQ8AMIIBCgKCAQEAl0Y4
Axa2+o18vpGUi8gKj+YABBZ7U6u7uq9wx3/xQ8hJhtcamZE279wgOscpTgWZhif5
ycKkuvdkwnsiMA9Hy4aI2wG+wvOoIh/1Z+Y4PQl/ijd7GkS5ghMK4Xn+vxguexkG
nsODHFHGZj0jUrpDTMO9CUojxJHr9Q0ii67AMX4wIPO3y2Tie4VITrmYpQuuinR1
KuqFR1ICv8Uet0KFGWsXJEaIfEByDlx4tKh7NMvq0NQQxSDosXNdKiG8G0yx5ZOq
Hikss8ftGV5QRQg6Q/qR7Qh/P9zWkFRTVSiUxDRpvOiZhPwFKhFBkYdJrPJwZGCs
omGRBLevuWO0C3En+wIDAQABo10wWzAJBgNVHRMEAjAAMC8GA1UdEQQoMCaHBApa
JxeCHmljY2x1c3RlcjA3Mi5pY2NsdXN0ZXIuZXBmbC5jaDAdBgNVHQ4EFgQUt4O0
JIQFae3eCvdLGu8aie81h+8wDQYJKoZIhvcNAQELBQADggEBAAHpx5T4oUyPj5uS
4M4VUM8R9wiqb/qkmsJ4boyt3YU5Fyv2gu7B1hnDtuTl6uGxG0rmgsl2QIvd1D/w
p2KdaDzufzIRgjEO3zMdb37vdZ3xRcssmONPjBGjAsxxDleS3J/l3rpTZjz12dMr
qQ08d3rN79g4gnbMnVlW3/+zj9hR1x5N4fuy8E3Y/4yTcVxHcrpxcFgFVKLxjQxG
TDmPECrzt9K+PhcrjzCQXIDXJ0mzhIXvTvhN1o2yhBXXA8vL9ZgIEdq/Iho4NgFM
keN12KP5eO3wEEvj1CLpfkIX4ImKsATDOJ17GAVEBde4cMB/x1V3ILVSeCD0FaH2
HwPIBKg=
-----END CERTIFICATE-----
