Certificate:
    Data:
        Version: 3 (0x2)
        Serial Number: 9234825056991670433 (0x8028b0760cdd70a1)
    Signature Algorithm: sha256WithRSAEncryption
        Issuer: C=xx, ST=x, O=x, OU=x, CN=x
        Validity
            Not Before: May  3 09:20:05 2018 GMT
            Not After : May  2 09:20:05 2021 GMT
        Subject: C=xx, ST=x, O=x, OU=x, CN=x
        Subject Public Key Info:
            Public Key Algorithm: rsaEncryption
                Public-Key: (2048 bit)
                Modulus:
                    00:b3:74:07:44:8a:d2:76:c0:61:1f:ee:36:f1:d2:
                    b8:68:3a:dc:a8:80:f6:69:05:32:d8:b7:e8:bf:00:
                    a7:0a:fc:75:e3:0b:d6:f8:42:1f:ae:98:25:d1:99:
                    30:fd:16:35:e6:8d:4a:19:12:6b:29:d1:8b:cd:68:
                    89:fa:3f:b1:3f:ad:fa:ff:14:ac:9e:a5:78:39:65:
                    0e:89:60:6a:12:cf:35:33:e4:07:4b:12:8f:f1:36:
                    6e:33:61:14:4c:ab:43:77:ef:d5:f5:19:50:8d:78:
                    59:22:72:55:da:bd:8f:86:02:97:f4:f8:4b:67:f5:
                    09:25:d5:07:f1:0d:6c:2b:bb:e7:f2:0b:4b:e5:e1:
                    8d:fa:47:b9:07:e2:99:76:fc:9e:6b:8e:c1:d1:d8:
                    8b:40:6c:7f:85:bc:3a:06:d4:a0:d8:8d:66:55:54:
                    1f:78:cc:3b:69:d3:fe:e6:af:59:e5:44:22:f3:75:
                    df:ee:d5:2c:cd:fc:c2:18:fd:76:23:ec:e6:f9:8c:
                    d8:8f:bb:25:86:34:11:8b:80:04:8a:ed:89:89:85:
                    d4:94:e9:c9:85:b4:6e:9b:75:de:13:8e:6d:31:3a:
                    7d:c3:52:d8:89:38:97:35:09:4d:5c:85:2c:8f:42:
                    54:c5:1b:12:9b:8a:c7:c4:9a:1d:e0:cb:3e:86:b7:
                    6a:b3
                Exponent: 65537 (0x10001)
        X509v3 extensions:
            X509v3 Subject Key Identifier: 
                15:D4:13:30:DC:A0:91:BE:6F:6F:F6:E7:06:F6:60:DD:29:AD:7D:6B
            X509v3 Authority Key Identifier: 
                keyid:15:D4:13:30:DC:A0:91:BE:6F:6F:F6:E7:06:F6:60:DD:29:AD:7D:6B

            X509v3 Basic Constraints: 
                CA:TRUE
    Signature Algorithm: sha256WithRSAEncryption
         83:29:05:6e:25:46:62:dc:5a:5c:8f:f0:35:19:82:a6:d0:67:
         73:70:1d:07:f5:0e:90:4c:5c:dd:64:65:17:c0:76:43:72:18:
         10:d7:3e:b3:f1:2a:8e:b4:47:49:78:ca:b0:b9:a7:ba:2b:4d:
         12:28:bb:19:03:c6:54:f4:10:02:3c:6f:6a:b3:c7:9e:81:d6:
         fa:b0:5d:ee:4b:b7:56:80:fd:85:7d:5e:d1:5c:29:e8:51:81:
         23:0b:48:da:25:38:d0:2c:d9:70:f9:a0:9d:4d:ee:60:04:65:
         f6:aa:cc:30:c2:fa:96:e4:70:d3:75:2d:f3:57:ce:fe:58:a7:
         cd:d3:9b:b2:97:35:22:b9:fc:b9:56:a4:66:e8:1e:e2:5e:d5:
         51:86:a0:d8:69:45:4c:b1:f8:84:06:d3:77:92:c2:79:69:47:
         3f:b0:f7:91:1d:35:a2:63:a6:01:96:1e:bf:8a:3b:4c:85:6d:
         3d:dd:26:9a:fb:f4:e9:d9:d0:bb:b5:57:34:74:59:b7:d8:cc:
         d9:7d:87:8b:b0:a3:bc:c8:ac:97:ad:16:c1:17:de:e9:db:77:
         70:7b:3e:e1:16:1c:0f:70:10:7f:c9:8a:f4:7f:a1:71:a0:3c:
         6d:fd:12:f4:3d:a1:af:18:2a:f3:a6:46:95:8b:e1:d3:15:41:
         45:eb:ca:1f
-----BEGIN CERTIFICATE-----
MIIDTTCCAjWgAwIBAgIJAIAosHYM3XChMA0GCSqGSIb3DQEBCwUAMD0xCzAJBgNV
BAYTAnh4MQowCAYDVQQIDAF4MQowCAYDVQQKDAF4MQowCAYDVQQLDAF4MQowCAYD
VQQDDAF4MB4XDTE4MDUwMzA5MjAwNVoXDTIxMDUwMjA5MjAwNVowPTELMAkGA1UE
BhMCeHgxCjAIBgNVBAgMAXgxCjAIBgNVBAoMAXgxCjAIBgNVBAsMAXgxCjAIBgNV
BAMMAXgwggEiMA0GCSqGSIb3DQEBAQUAA4IBDwAwggEKAoIBAQCzdAdEitJ2wGEf
7jbx0rhoOtyogPZpBTLYt+i/AKcK/HXjC9b4Qh+umCXRmTD9FjXmjUoZEmsp0YvN
aIn6P7E/rfr/FKyepXg5ZQ6JYGoSzzUz5AdLEo/xNm4zYRRMq0N379X1GVCNeFki
clXavY+GApf0+Etn9Qkl1QfxDWwru+fyC0vl4Y36R7kH4pl2/J5rjsHR2ItAbH+F
vDoG1KDYjWZVVB94zDtp0/7mr1nlRCLzdd/u1SzN/MIY/XYj7Ob5jNiPuyWGNBGL
gASK7YmJhdSU6cmFtG6bdd4Tjm0xOn3DUtiJOJc1CU1chSyPQlTFGxKbisfEmh3g
yz6Gt2qzAgMBAAGjUDBOMB0GA1UdDgQWBBQV1BMw3KCRvm9v9ucG9mDdKa19azAf
BgNVHSMEGDAWgBQV1BMw3KCRvm9v9ucG9mDdKa19azAMBgNVHRMEBTADAQH/MA0G
CSqGSIb3DQEBCwUAA4IBAQCDKQVuJUZi3Fpcj/A1GYKm0GdzcB0H9Q6QTFzdZGUX
wHZDchgQ1z6z8SqOtEdJeMqwuae6K00SKLsZA8ZU9BACPG9qs8eegdb6sF3uS7dW
gP2FfV7RXCnoUYEjC0jaJTjQLNlw+aCdTe5gBGX2qswwwvqW5HDTdS3zV87+WKfN
05uylzUiufy5VqRm6B7iXtVRhqDYaUVMsfiEBtN3ksJ5aUc/sPeRHTWiY6YBlh6/
ijtMhW093Saa+/Tp2dC7tVc0dFm32MzZfYeLsKO8yKyXrRbBF97p23dwez7hFhwP
cBB/yYr0f6FxoDxt/RL0PaGvGCrzpkaVi+HTFUFF68of
-----END CERTIFICATE-----
