Certificate:
    Data:
        Version: 3 (0x2)
        Serial Number:
            dd:bf:24:7a:52:43:90:75
    Signature Algorithm: sha256WithRSAEncryption
        Issuer: C=CH, ST=Vaud, O=EPFL, OU=LCA1, CN=JoaoSA/emailAddress=jagsousa@gmail.com
        Validity
            Not Before: Jun 26 16:24:52 2018 GMT
            Not After : Jun 25 16:24:52 2021 GMT
        Subject: C=CH, ST=Vaud, O=EPFL, OU=LCA1, CN=JoaoSA/emailAddress=jagsousa@gmail.com
        Subject Public Key Info:
            Public Key Algorithm: rsaEncryption
                Public-Key: (2048 bit)
                Modulus:
                    00:a0:2e:89:6d:8d:a8:c0:f3:a9:07:fc:73:a6:70:
                    8f:d7:f2:e8:2f:13:f2:fa:e3:4d:49:c4:ab:ac:47:
                    c7:3c:e3:e8:d8:94:87:09:a6:0c:a7:ba:1c:a2:7d:
                    42:49:df:bd:82:41:bc:18:f8:38:06:0d:59:ee:f2:
                    bc:4a:ef:65:d6:39:18:27:9a:10:d0:cb:10:cf:52:
                    9e:6f:01:ce:6e:ef:95:8c:a7:24:2f:33:e1:cb:50:
                    e0:3e:f1:5e:0b:f4:21:1f:df:36:82:05:ba:15:82:
                    f6:2d:e8:d2:4e:8e:2c:8e:58:87:7f:f9:eb:5e:f9:
                    61:37:5c:4c:80:fe:bf:fb:04:83:6d:61:0d:7f:43:
                    74:92:ee:7c:55:10:e1:aa:c2:2e:63:f8:e7:f8:97:
                    44:46:53:52:17:4d:cf:30:be:b1:d8:5c:ce:5f:7c:
                    3b:c8:bf:02:22:13:53:cd:04:74:f5:de:dc:3f:71:
                    ed:28:6e:b3:14:43:3b:7f:c1:08:1e:e0:b8:b0:6a:
                    d0:c0:fc:4f:78:1b:d0:a3:ac:2f:aa:63:e4:61:ed:
                    12:c0:21:7f:af:13:aa:71:3a:e1:5c:55:9a:76:36:
                    73:a6:de:f2:02:83:8b:90:33:c3:1c:b3:55:35:81:
                    d1:5d:8f:21:4a:6f:04:b8:9b:17:70:b3:42:24:a2:
                    2d:e9
                Exponent: 65537 (0x10001)
        X509v3 extensions:
            X509v3 Subject Key Identifier: 
                8B:8C:23:AB:C7:F6:D5:BF:81:5C:97:5C:C8:CE:38:2A:D4:C3:18:4A
            X509v3 Authority Key Identifier: 
                keyid:8B:8C:23:AB:C7:F6:D5:BF:81:5C:97:5C:C8:CE:38:2A:D4:C3:18:4A

            X509v3 Basic Constraints: 
                CA:TRUE
    Signature Algorithm: sha256WithRSAEncryption
         15:d5:cb:1e:39:1c:d8:a4:24:a3:5e:9a:5f:1e:f0:73:95:b6:
         dc:f6:a3:9a:0d:15:80:63:3d:85:5e:df:f1:25:2c:47:39:d9:
         80:6a:92:42:2d:1b:39:f6:98:49:d8:3f:21:29:76:aa:12:6f:
         7b:2a:9d:80:8a:d0:d6:6e:7c:6b:22:33:52:a7:53:7a:81:a3:
         d3:4e:cd:f9:27:79:43:de:c8:98:b1:61:f5:7d:e8:80:6a:b0:
         5e:c9:4b:fb:d2:1c:72:30:bd:d5:27:0c:b9:32:e9:d6:b9:a2:
         27:12:6b:a5:ef:6f:f7:cd:4f:23:5b:97:43:67:64:92:4a:21:
         f6:bb:c5:f8:d5:80:77:bd:c4:a3:27:81:17:19:c1:70:86:5b:
         d9:45:34:6c:bc:ab:42:5a:b1:a8:e4:42:80:18:fd:fe:40:d2:
         94:04:dd:15:ac:a4:56:3e:b0:ab:41:89:02:70:b6:c6:c8:90:
         86:6a:31:26:8a:ab:2c:9b:09:f0:bc:02:0f:1a:d4:79:8d:33:
         9d:9b:b3:d9:08:c6:4f:e9:47:59:0d:e8:dd:91:a5:c4:5a:d9:
         82:91:ae:95:51:fc:94:76:f2:84:61:3f:68:ef:d4:c2:1d:cd:
         b8:d6:e8:62:86:81:a5:4d:57:85:e2:27:e2:6f:65:97:32:d5:
         e9:16:3e:83
-----BEGIN CERTIFICATE-----
MIIDrzCCApegAwIBAgIJAN2/JHpSQ5B1MA0GCSqGSIb3DQEBCwUAMG4xCzAJBgNV
BAYTAkNIMQ0wCwYDVQQIDARWYXVkMQ0wCwYDVQQKDARFUEZMMQ0wCwYDVQQLDARM
Q0ExMQ8wDQYDVQQDDAZKb2FvU0ExITAfBgkqhkiG9w0BCQEWEmphZ3NvdXNhQGdt
YWlsLmNvbTAeFw0xODA2MjYxNjI0NTJaFw0yMTA2MjUxNjI0NTJaMG4xCzAJBgNV
BAYTAkNIMQ0wCwYDVQQIDARWYXVkMQ0wCwYDVQQKDARFUEZMMQ0wCwYDVQQLDARM
Q0ExMQ8wDQYDVQQDDAZKb2FvU0ExITAfBgkqhkiG9w0BCQEWEmphZ3NvdXNhQGdt
YWlsLmNvbTCCASIwDQYJKoZIhvcNAQEBBQADggEPADCCAQoCggEBAKAuiW2NqMDz
qQf8c6Zwj9fy6C8T8vrjTUnEq6xHxzzj6NiUhwmmDKe6HKJ9QknfvYJBvBj4OAYN
We7yvErvZdY5GCeaENDLEM9Snm8Bzm7vlYynJC8z4ctQ4D7xXgv0IR/fNoIFuhWC
9i3o0k6OLI5Yh3/56175YTdcTID+v/sEg21hDX9DdJLufFUQ4arCLmP45/iXREZT
UhdNzzC+sdhczl98O8i/AiITU80EdPXe3D9x7ShusxRDO3/BCB7guLBq0MD8T3gb
0KOsL6pj5GHtEsAhf68TqnE64VxVmnY2c6be8gKDi5AzwxyzVTWB0V2PIUpvBLib
F3CzQiSiLekCAwEAAaNQME4wHQYDVR0OBBYEFIuMI6vH9tW/gVyXXMjOOCrUwxhK
MB8GA1UdIwQYMBaAFIuMI6vH9tW/gVyXXMjOOCrUwxhKMAwGA1UdEwQFMAMBAf8w
DQYJKoZIhvcNAQELBQADggEBABXVyx45HNikJKNeml8e8HOVttz2o5oNFYBjPYVe
3/ElLEc52YBqkkItGzn2mEnYPyEpdqoSb3sqnYCK0NZufGsiM1KnU3qBo9NOzfkn
eUPeyJixYfV96IBqsF7JS/vSHHIwvdUnDLky6da5oicSa6Xvb/fNTyNbl0NnZJJK
Ifa7xfjVgHe9xKMngRcZwXCGW9lFNGy8q0JasajkQoAY/f5A0pQE3RWspFY+sKtB
iQJwtsbIkIZqMSaKqyybCfC8Ag8a1HmNM52bs9kIxk/pR1kN6N2RpcRa2YKRrpVR
/JR28oRhP2jv1MIdzbjW6GKGgaVNV4XiJ+JvZZcy1ekWPoM=
-----END CERTIFICATE-----
