Certificate:
    Data:
        Version: 3 (0x2)
        Serial Number:
            d0:55:d6:95:8d:63:85:78
    Signature Algorithm: sha256WithRSAEncryption
        Issuer: C=CH, ST=Vaud, O=EPFL, OU=LCA1, CN=MedCo
        Validity
            Not Before: Jan 14 14:38:24 2018 GMT
            Not After : Jan 13 14:38:24 2021 GMT
        Subject: C=CH, ST=Vaud, O=EPFL, OU=LCA1, CN=MedCo
        Subject Public Key Info:
            Public Key Algorithm: rsaEncryption
                Public-Key: (2048 bit)
                Modulus:
                    00:a5:d4:21:cf:80:fe:fc:ad:c9:9d:49:ab:c9:92:
                    1f:a7:b3:27:3b:cb:ad:3c:48:27:ea:9a:37:1f:b8:
                    7d:9a:11:b6:99:b8:63:45:40:52:c0:96:8d:50:60:
                    b4:03:75:f7:3f:a9:2f:d5:c1:0a:c6:68:4c:9e:8d:
                    fb:61:e9:d9:75:d4:2b:55:ed:66:01:fa:07:36:cd:
                    55:8d:76:ac:0a:09:05:5a:dc:cf:8f:33:72:71:ad:
                    c0:3f:cd:21:f1:bb:69:a8:7d:04:1f:0c:25:e3:99:
                    4e:05:3e:30:b6:04:40:c0:c0:7f:d4:f4:9b:6b:78:
                    e4:97:67:e4:eb:9d:77:bf:e9:98:78:dc:b1:d6:6c:
                    42:ba:c0:b8:f2:2d:cd:9d:32:49:02:88:a1:80:d2:
                    97:e3:67:02:f3:7a:3a:e8:6d:47:0d:20:a0:93:ff:
                    f4:5a:be:11:b1:a6:f3:38:1d:72:0e:f9:bf:86:5d:
                    e0:ca:51:2c:ad:39:f0:1d:95:5a:46:f4:96:0e:7e:
                    14:86:58:6f:46:37:aa:f0:a9:98:d6:01:7a:88:0c:
                    20:27:d0:89:13:6c:39:f7:6a:4d:c8:11:1c:15:cf:
                    53:fe:1b:f0:89:af:59:1c:03:47:11:91:07:d9:b4:
                    5c:cd:e6:a8:de:dc:f0:04:63:ef:e1:ab:7e:53:ec:
                    ee:65
                Exponent: 65537 (0x10001)
        X509v3 extensions:
            X509v3 Subject Key Identifier: 
                CE:35:1E:DA:98:57:7A:43:8E:28:F1:1E:57:E0:BF:EC:F2:3E:DD:2C
            X509v3 Authority Key Identifier: 
                keyid:CE:35:1E:DA:98:57:7A:43:8E:28:F1:1E:57:E0:BF:EC:F2:3E:DD:2C

            X509v3 Basic Constraints: 
                CA:TRUE
    Signature Algorithm: sha256WithRSAEncryption
         5c:d3:d1:d1:5e:4c:25:a4:d8:cd:cc:ad:ae:0f:8a:3b:77:ce:
         a7:0b:e5:24:b5:69:00:22:30:05:18:a8:42:29:6c:81:a1:0d:
         03:9a:47:4d:10:d5:23:d6:91:3f:49:1f:9c:a2:ed:59:f3:43:
         34:23:ab:06:dd:61:51:1f:a8:03:4d:ba:d6:5e:61:a2:a6:00:
         d7:a3:9d:2d:4e:4a:88:6b:6f:55:1e:a0:09:d3:73:7a:a0:78:
         ba:8b:75:78:4e:3f:34:77:c9:5c:4a:dd:7b:d6:6d:87:73:89:
         d2:3d:a3:12:d8:d1:30:8c:0b:aa:57:1f:cf:b5:a2:d6:ec:89:
         10:e1:2d:b0:5b:6b:99:21:6b:a5:f9:41:53:c8:16:8b:d6:af:
         6c:b9:64:21:ae:0a:79:a7:4e:6d:a3:0a:b2:ca:c7:4a:2d:cc:
         15:69:a2:d0:55:11:73:5a:b3:16:be:55:5a:b8:ef:ab:cc:e5:
         bd:0f:c9:3d:01:2d:8b:32:a5:d4:4c:de:c9:8e:9c:4c:52:c0:
         d4:f3:81:b9:5a:e5:0b:8b:e1:9f:15:70:89:1e:60:0a:fc:69:
         80:51:ce:6c:81:40:c4:d8:2d:57:36:9e:f8:10:23:72:ef:a7:
         4a:7c:13:75:41:d1:32:ee:70:b9:eb:87:4c:e4:1e:cd:72:d0:
         3e:d7:89:04
-----BEGIN CERTIFICATE-----
MIIDZzCCAk+gAwIBAgIJANBV1pWNY4V4MA0GCSqGSIb3DQEBCwUAMEoxCzAJBgNV
BAYTAkNIMQ0wCwYDVQQIDARWYXVkMQ0wCwYDVQQKDARFUEZMMQ0wCwYDVQQLDARM
Q0ExMQ4wDAYDVQQDDAVNZWRDbzAeFw0xODAxMTQxNDM4MjRaFw0yMTAxMTMxNDM4
MjRaMEoxCzAJBgNVBAYTAkNIMQ0wCwYDVQQIDARWYXVkMQ0wCwYDVQQKDARFUEZM
MQ0wCwYDVQQLDARMQ0ExMQ4wDAYDVQQDDAVNZWRDbzCCASIwDQYJKoZIhvcNAQEB
BQADggEPADCCAQoCggEBAKXUIc+A/vytyZ1Jq8mSH6ezJzvLrTxIJ+qaNx+4fZoR
tpm4Y0VAUsCWjVBgtAN19z+pL9XBCsZoTJ6N+2Hp2XXUK1XtZgH6BzbNVY12rAoJ
BVrcz48zcnGtwD/NIfG7aah9BB8MJeOZTgU+MLYEQMDAf9T0m2t45Jdn5Oudd7/p
mHjcsdZsQrrAuPItzZ0ySQKIoYDSl+NnAvN6OuhtRw0goJP/9Fq+EbGm8zgdcg75
v4Zd4MpRLK058B2VWkb0lg5+FIZYb0Y3qvCpmNYBeogMICfQiRNsOfdqTcgRHBXP
U/4b8ImvWRwDRxGRB9m0XM3mqN7c8ARj7+GrflPs7mUCAwEAAaNQME4wHQYDVR0O
BBYEFM41HtqYV3pDjijxHlfgv+zyPt0sMB8GA1UdIwQYMBaAFM41HtqYV3pDjijx
Hlfgv+zyPt0sMAwGA1UdEwQFMAMBAf8wDQYJKoZIhvcNAQELBQADggEBAFzT0dFe
TCWk2M3Mra4Pijt3zqcL5SS1aQAiMAUYqEIpbIGhDQOaR00Q1SPWkT9JH5yi7Vnz
QzQjqwbdYVEfqANNutZeYaKmANejnS1OSohrb1UeoAnTc3qgeLqLdXhOPzR3yVxK
3XvWbYdzidI9oxLY0TCMC6pXH8+1otbsiRDhLbBba5kha6X5QVPIFovWr2y5ZCGu
CnmnTm2jCrLKx0otzBVpotBVEXNasxa+VVq476vM5b0PyT0BLYsypdRM3smOnExS
wNTzgbla5QuL4Z8VcIkeYAr8aYBRzmyBQMTYLVc2nvgQI3Lvp0p8E3VB0TLucLnr
h0zkHs1y0D7XiQQ=
-----END CERTIFICATE-----
