Certificate:
    Data:
        Version: 3 (0x2)
        Serial Number: 17714849606439469991 (0xf5d7c9dc194b03a7)
    Signature Algorithm: sha256WithRSAEncryption
        Issuer: C=CH, ST=Vaud, O=EPFL, OU=MedCo, CN=Node 1
        Validity
            Not Before: Apr 10 10:31:24 2018 GMT
            Not After : Apr  9 10:31:24 2021 GMT
        Subject: C=CH, ST=Vaud, O=EPFL, OU=MedCo, CN=Node 1
        Subject Public Key Info:
            Public Key Algorithm: rsaEncryption
                Public-Key: (2048 bit)
                Modulus:
                    00:c3:11:2a:ef:77:f1:b3:d2:74:6a:c1:37:40:2a:
                    dc:d9:7c:80:07:c4:bd:0d:22:38:9e:c2:6d:5d:17:
                    eb:5d:66:3e:06:19:f6:c4:16:19:ae:88:72:d1:11:
                    f9:74:6e:1c:60:07:2a:1b:d7:1f:64:60:4d:d4:0d:
                    d4:33:d5:43:6f:5b:d3:9b:0a:f9:ac:da:32:31:f0:
                    fb:46:63:a6:59:a8:20:39:ea:68:f3:ef:d2:c7:33:
                    26:bc:1b:b1:5a:a1:8c:ae:5e:9d:ca:3b:d9:9b:99:
                    b4:fd:fd:b0:15:bc:62:dd:a4:f8:8a:e7:c0:ca:be:
                    55:fb:7d:3d:69:95:e6:2b:99:44:b4:00:bc:0e:48:
                    a5:11:dc:f3:10:38:c0:67:af:e8:9e:42:13:d4:f6:
                    11:ac:08:db:1e:40:41:a0:c4:11:0e:4a:5c:f2:8c:
                    86:01:04:52:01:8a:66:f2:94:c1:5f:5e:21:e1:eb:
                    cc:49:24:cc:83:44:d1:18:a8:37:4f:f9:43:60:bc:
                    c4:43:1a:11:6f:c5:7d:51:70:db:d2:09:c0:38:fb:
                    28:09:22:18:34:55:cd:f4:87:a8:a2:ae:27:f1:f3:
                    bf:9f:3e:5f:a8:9a:fe:d0:5e:ba:b7:56:80:67:d8:
                    54:4c:35:9c:42:eb:b0:98:cf:45:0f:bf:6b:d4:e0:
                    fe:41
                Exponent: 65537 (0x10001)
        X509v3 extensions:
            X509v3 Subject Key Identifier: 
                FC:8A:E9:5D:71:0E:34:4B:29:D6:BC:FF:EC:2A:42:C9:59:77:F2:DF
            X509v3 Authority Key Identifier: 
                keyid:FC:8A:E9:5D:71:0E:34:4B:29:D6:BC:FF:EC:2A:42:C9:59:77:F2:DF

            X509v3 Basic Constraints: 
                CA:TRUE
    Signature Algorithm: sha256WithRSAEncryption
         c2:cb:c8:5f:96:fd:5e:9f:e4:ac:97:ba:45:f1:8f:31:1b:b3:
         8d:e6:58:55:c6:58:d3:9b:6e:ff:15:d9:12:6d:38:0f:ab:f3:
         c3:4e:60:d2:b5:0f:15:45:21:89:20:04:5f:81:ad:4f:e2:5c:
         bb:d4:fe:4b:0c:fc:44:42:31:8e:43:dc:59:88:6b:d4:ca:38:
         6c:b1:a8:69:21:62:da:bc:e2:09:99:76:9f:d0:70:c6:1d:35:
         2a:75:75:b5:a6:30:a5:32:51:26:77:13:62:da:72:fd:01:d4:
         2b:50:4b:f9:ad:e3:d9:d3:f9:38:37:db:9a:c1:e9:22:df:e4:
         57:a1:bb:8a:2c:4c:fe:99:7b:1c:a2:07:ff:a4:01:3d:e5:00:
         2c:8e:13:01:fc:27:15:e6:2e:8a:6a:c9:00:bd:5f:b0:b8:33:
         7e:49:72:dd:0e:32:ec:53:bc:6d:b6:2d:af:e2:f8:f5:7b:57:
         d8:7d:45:cf:8c:59:f5:6c:29:2c:75:ad:d4:00:e8:e1:d9:ca:
         37:0a:0f:7c:67:4c:c8:0f:ea:1c:5e:99:8e:8f:b4:63:8d:b1:
         a7:96:d8:22:01:42:93:57:91:85:f9:4c:41:0a:dd:05:92:c7:
         d2:23:c6:f1:ca:8a:af:7e:fe:8f:ec:48:b4:2f:76:18:83:4c:
         01:fd:71:ca
-----BEGIN CERTIFICATE-----
MIIDazCCAlOgAwIBAgIJAPXXydwZSwOnMA0GCSqGSIb3DQEBCwUAMEwxCzAJBgNV
BAYTAkNIMQ0wCwYDVQQIDARWYXVkMQ0wCwYDVQQKDARFUEZMMQ4wDAYDVQQLDAVN
ZWRDbzEPMA0GA1UEAwwGTm9kZSAxMB4XDTE4MDQxMDEwMzEyNFoXDTIxMDQwOTEw
MzEyNFowTDELMAkGA1UEBhMCQ0gxDTALBgNVBAgMBFZhdWQxDTALBgNVBAoMBEVQ
RkwxDjAMBgNVBAsMBU1lZENvMQ8wDQYDVQQDDAZOb2RlIDEwggEiMA0GCSqGSIb3
DQEBAQUAA4IBDwAwggEKAoIBAQDDESrvd/Gz0nRqwTdAKtzZfIAHxL0NIjiewm1d
F+tdZj4GGfbEFhmuiHLREfl0bhxgByob1x9kYE3UDdQz1UNvW9ObCvms2jIx8PtG
Y6ZZqCA56mjz79LHMya8G7FaoYyuXp3KO9mbmbT9/bAVvGLdpPiK58DKvlX7fT1p
leYrmUS0ALwOSKUR3PMQOMBnr+ieQhPU9hGsCNseQEGgxBEOSlzyjIYBBFIBimby
lMFfXiHh68xJJMyDRNEYqDdP+UNgvMRDGhFvxX1RcNvSCcA4+ygJIhg0Vc30h6ii
rifx87+fPl+omv7QXrq3VoBn2FRMNZxC67CYz0UPv2vU4P5BAgMBAAGjUDBOMB0G
A1UdDgQWBBT8iuldcQ40SynWvP/sKkLJWXfy3zAfBgNVHSMEGDAWgBT8iuldcQ40
SynWvP/sKkLJWXfy3zAMBgNVHRMEBTADAQH/MA0GCSqGSIb3DQEBCwUAA4IBAQDC
y8hflv1en+Ssl7pF8Y8xG7ON5lhVxljTm27/FdkSbTgPq/PDTmDStQ8VRSGJIARf
ga1P4ly71P5LDPxEQjGOQ9xZiGvUyjhssahpIWLavOIJmXaf0HDGHTUqdXW1pjCl
MlEmdxNi2nL9AdQrUEv5rePZ0/k4N9uaweki3+RXobuKLEz+mXscogf/pAE95QAs
jhMB/CcV5i6KaskAvV+wuDN+SXLdDjLsU7xtti2v4vj1e1fYfUXPjFn1bCksda3U
AOjh2co3Cg98Z0zID+ocXpmOj7RjjbGnltgiAUKTV5GF+UxBCt0FksfSI8bxyoqv
fv6P7Ei0L3YYg0wB/XHK
-----END CERTIFICATE-----
