Certificate:
    Data:
        Version: 3 (0x2)
        Serial Number: 17153950821878998993 (0xee0f1363109e27d1)
    Signature Algorithm: sha256WithRSAEncryption
        Issuer: C=CH, ST=VD, O=EPFL, OU=LCA1, CN=MedCO
        Validity
            Not Before: Aug 20 14:24:09 2018 GMT
            Not After : Aug 20 14:24:09 2019 GMT
        Subject: C=CH, ST=VD, L=Lausanne, O=EPFL, OU=LCA1, CN=iccluster072.iccluster.epfl.ch
        Subject Public Key Info:
            Public Key Algorithm: rsaEncryption
                Public-Key: (2048 bit)
                Modulus:
                    00:8e:50:80:9b:69:e6:9d:0b:4d:1c:83:5a:76:96:
                    53:ef:98:30:58:df:7c:a8:ff:58:38:f4:03:af:49:
                    aa:3b:38:55:15:8c:34:73:50:38:fb:ac:7b:f4:d3:
                    ff:10:8b:f1:54:d2:57:9c:68:8d:6d:48:98:79:fc:
                    86:c2:85:b1:54:01:30:f9:f7:8b:e0:ff:2f:c3:f4:
                    71:ed:48:88:96:f2:12:0e:1e:2e:da:16:9a:0a:cf:
                    22:cc:a8:12:f5:eb:d0:02:c3:6b:a4:55:ed:79:82:
                    5a:93:76:0e:47:76:b1:1b:f2:01:e8:be:6e:07:88:
                    85:43:98:84:fd:99:87:e2:15:e2:b2:33:68:cc:e4:
                    1b:e3:96:9a:cc:4d:78:e1:83:3a:2e:f3:46:ad:f1:
                    09:5d:dc:53:4e:11:ec:49:79:2d:45:e2:90:29:75:
                    46:b4:7f:3e:1d:ec:14:83:3d:71:26:96:4d:28:f8:
                    d2:69:bc:97:15:aa:d2:a2:11:85:7e:dc:ec:ea:95:
                    ca:19:24:22:66:a3:ed:8d:ae:1f:6b:b4:6c:05:50:
                    88:87:da:cb:ef:28:9b:b6:b6:5b:0b:24:35:64:73:
                    a9:41:30:f2:c1:ab:a4:ac:06:8a:b5:df:a3:fd:11:
                    3c:cb:0c:2e:72:7d:f5:23:43:cd:47:43:ce:d5:08:
                    bf:ff
                Exponent: 65537 (0x10001)
        X509v3 extensions:
            X509v3 Basic Constraints: 
                CA:FALSE
            X509v3 Subject Alternative Name: 
                IP Address:10.90.39.23, DNS:iccluster072.iccluster.epfl.ch
            X509v3 Subject Key Identifier: 
                24:CC:00:FF:B1:5E:E8:11:3E:52:8E:15:35:DD:55:9C:26:8A:60:7F
    Signature Algorithm: sha256WithRSAEncryption
         8c:ec:d1:9a:bb:99:15:aa:3d:9f:ec:7c:de:1d:f5:37:4f:ab:
         aa:2f:41:ee:89:52:60:60:85:44:96:c7:14:9a:fe:35:4c:73:
         10:cd:ea:0e:a9:af:1f:d2:f3:5d:ce:21:10:37:86:e2:c9:0d:
         04:0f:73:72:23:a8:08:c8:95:c4:d9:a8:d4:8c:e0:61:45:70:
         44:4c:56:24:c5:ab:43:cb:5a:a9:0c:ac:4a:d2:59:b1:9d:12:
         2f:a2:91:30:6f:13:38:ab:d2:c7:1e:f0:ff:87:0d:d3:fb:ac:
         2a:33:44:b8:1b:bb:c2:73:c4:f3:71:75:bb:57:e3:2c:cf:be:
         83:3e:2c:1c:f3:f9:92:fd:83:9d:21:58:f1:68:d0:35:28:3b:
         af:c1:eb:65:cf:b1:e4:af:ba:ef:b3:4c:88:aa:d1:5f:e7:56:
         f8:dd:64:ed:95:b9:81:d0:83:85:80:6c:ee:10:4b:3f:e6:ca:
         38:c4:c2:a0:4e:4b:a9:9a:e8:0f:56:20:63:f8:26:61:aa:87:
         3a:02:2c:89:22:24:54:72:62:5c:7b:d8:c2:5d:35:1f:76:4d:
         b9:a0:92:26:df:5e:17:ad:7a:a0:5b:19:a2:73:f6:c1:97:7a:
         83:69:4c:f3:52:e1:cc:d1:07:0e:ce:83:e1:43:c1:c3:f7:e7:
         b3:6e:a1:72
-----BEGIN CERTIFICATE-----
MIIDnDCCAoSgAwIBAgIJAO4PE2MQnifRMA0GCSqGSIb3DQEBCwUAMEgxCzAJBgNV
BAYTAkNIMQswCQYDVQQIDAJWRDENMAsGA1UECgwERVBGTDENMAsGA1UECwwETENB
MTEOMAwGA1UEAwwFTWVkQ08wHhcNMTgwODIwMTQyNDA5WhcNMTkwODIwMTQyNDA5
WjB0MQswCQYDVQQGEwJDSDELMAkGA1UECBMCVkQxETAPBgNVBAcTCExhdXNhbm5l
MQ0wCwYDVQQKEwRFUEZMMQ0wCwYDVQQLEwRMQ0ExMScwJQYDVQQDEx5pY2NsdXN0
ZXIwNzIuaWNjbHVzdGVyLmVwZmwuY2gwggEiMA0GCSqGSIb3DQEBAQUAA4IBDwAw
ggEKAoIBAQCOUICbaeadC00cg1p2llPvmDBY33yo/1g49AOvSao7OFUVjDRzUDj7
rHv00/8Qi/FU0lecaI1tSJh5/IbChbFUATD594vg/y/D9HHtSIiW8hIOHi7aFpoK
zyLMqBL169ACw2ukVe15glqTdg5HdrEb8gHovm4HiIVDmIT9mYfiFeKyM2jM5Bvj
lprMTXjhgzou80at8Qld3FNOEexJeS1F4pApdUa0fz4d7BSDPXEmlk0o+NJpvJcV
qtKiEYV+3OzqlcoZJCJmo+2Nrh9rtGwFUIiH2svvKJu2tlsLJDVkc6lBMPLBq6Ss
Boq136P9ETzLDC5yffUjQ81HQ87VCL//AgMBAAGjXTBbMAkGA1UdEwQCMAAwLwYD
VR0RBCgwJocEClonF4IeaWNjbHVzdGVyMDcyLmljY2x1c3Rlci5lcGZsLmNoMB0G
A1UdDgQWBBQkzAD/sV7oET5SjhU13VWcJopgfzANBgkqhkiG9w0BAQsFAAOCAQEA
jOzRmruZFao9n+x83h31N0+rqi9B7olSYGCFRJbHFJr+NUxzEM3qDqmvH9LzXc4h
EDeG4skNBA9zciOoCMiVxNmo1IzgYUVwRExWJMWrQ8taqQysStJZsZ0SL6KRMG8T
OKvSxx7w/4cN0/usKjNEuBu7wnPE83F1u1fjLM++gz4sHPP5kv2DnSFY8WjQNSg7
r8HrZc+x5K+677NMiKrRX+dW+N1k7ZW5gdCDhYBs7hBLP+bKOMTCoE5LqZroD1Yg
Y/gmYaqHOgIsiSIkVHJiXHvYwl01H3ZNuaCSJt9eF616oFsZonP2wZd6g2lM81Lh
zNEHDs6D4UPBw/fns26hcg==
-----END CERTIFICATE-----
