Certificate:
    Data:
        Version: 3 (0x2)
        Serial Number: 14457037324735059296 (0xc8a1b6d9a5659560)
    Signature Algorithm: sha256WithRSAEncryption
        Issuer: C=xx, ST=x, O=x, OU=x, CN=x
        Validity
            Not Before: Apr 28 13:44:34 2018 GMT
            Not After : Apr 28 13:44:34 2019 GMT
        Subject: C=CH, ST=VD, L=Lausanne, O=EPFL, OU=LCA1, CN=iccluster081.iccluster.epfl.ch
        Subject Public Key Info:
            Public Key Algorithm: rsaEncryption
                Public-Key: (2048 bit)
                Modulus:
                    00:85:70:f0:d7:aa:8f:76:b4:22:ef:37:62:72:b0:
                    02:78:dc:36:07:9f:51:3d:48:aa:1a:03:0b:85:f2:
                    1f:9e:2c:7e:37:7e:6d:cb:ad:60:51:6b:7c:33:3c:
                    76:69:3f:93:69:c6:f9:a8:3b:89:3f:80:79:92:0a:
                    31:17:e1:9d:56:77:b7:ab:11:4a:03:a3:29:ec:1a:
                    a5:f8:48:44:a7:02:86:b6:00:85:a1:a8:2b:c7:8d:
                    bd:d3:38:04:ce:38:14:a2:70:54:d8:5c:c1:a6:d7:
                    56:ff:a3:70:0d:90:c9:4e:cd:73:78:bc:3d:f5:06:
                    24:d8:b0:a2:93:4f:19:a8:08:54:85:25:cb:84:f6:
                    fa:ec:5e:ee:28:00:39:8a:41:2e:05:97:5c:ec:02:
                    0d:3f:99:27:ad:af:b5:31:b5:0c:75:d5:d1:70:15:
                    aa:fc:50:e8:45:99:9a:37:2a:fa:37:85:91:e3:54:
                    f2:dc:c3:c0:fd:a0:52:2d:f6:7b:4a:78:d4:9e:e3:
                    39:d8:02:ea:5f:f6:81:e5:90:b4:e0:d8:a5:92:b4:
                    69:4e:ca:22:95:9d:6f:72:5c:ae:1b:9b:cc:72:20:
                    93:e0:40:22:a8:4c:77:dc:11:aa:4f:c5:20:85:4f:
                    64:fb:18:0b:dc:5c:df:b8:0f:48:a3:2a:dc:92:02:
                    ee:e3
                Exponent: 65537 (0x10001)
        X509v3 extensions:
            X509v3 Basic Constraints: 
                CA:FALSE
            X509v3 Subject Alternative Name: 
                IP Address:10.90.40.7, DNS:iccluster081.iccluster.epfl.ch
            X509v3 Subject Key Identifier: 
                10:5D:29:DA:21:5C:25:E6:67:49:3B:B1:6E:0D:C8:3B:ED:E5:71:C8
    Signature Algorithm: sha256WithRSAEncryption
         3c:cd:c0:18:25:da:c4:f9:5a:82:2a:eb:f1:81:5f:01:50:51:
         00:3b:ae:58:58:60:60:b5:77:7c:a2:a4:47:65:c7:75:26:bc:
         9a:fc:34:1f:b5:c1:5c:9a:18:f2:da:c5:a6:8b:ac:3a:b4:a4:
         bd:d2:a8:8c:66:dd:8a:22:d8:f3:9f:ca:61:8c:3a:3a:2e:98:
         00:58:7b:12:cd:b4:81:2a:0e:38:b7:b1:e6:ec:60:e9:2c:92:
         45:f2:20:a3:3f:07:46:d3:fe:4a:18:b5:bf:36:be:27:be:2b:
         fb:96:13:53:72:45:69:f9:57:39:88:bc:ae:b2:ad:91:54:3c:
         24:14:86:6a:10:40:0e:e6:3b:f9:e7:c6:f4:d3:22:44:bf:36:
         c3:48:bc:82:0b:e8:51:3f:4b:1f:d8:10:fe:f6:9e:ba:06:5f:
         c3:ed:ee:d9:d1:39:e7:9d:6b:96:91:35:ba:07:63:3c:6d:7b:
         b4:25:7b:d5:10:52:e7:2c:37:a6:7f:54:18:41:b7:a6:77:dc:
         30:37:b8:b5:e0:66:28:6e:6d:ae:cf:33:3b:cb:8b:1c:97:1a:
         75:c4:dd:93:ac:70:5e:ec:45:98:29:a3:ff:0b:b9:2a:e8:68:
         49:52:23:a6:54:4b:eb:d8:5b:74:99:76:d3:ba:f1:70:94:d9:
         29:b5:7a:99
-----BEGIN CERTIFICATE-----
MIIDkTCCAnmgAwIBAgIJAMihttmlZZVgMA0GCSqGSIb3DQEBCwUAMD0xCzAJBgNV
BAYTAnh4MQowCAYDVQQIDAF4MQowCAYDVQQKDAF4MQowCAYDVQQLDAF4MQowCAYD
VQQDDAF4MB4XDTE4MDQyODEzNDQzNFoXDTE5MDQyODEzNDQzNFowdDELMAkGA1UE
BhMCQ0gxCzAJBgNVBAgTAlZEMREwDwYDVQQHEwhMYXVzYW5uZTENMAsGA1UEChME
RVBGTDENMAsGA1UECxMETENBMTEnMCUGA1UEAxMeaWNjbHVzdGVyMDgxLmljY2x1
c3Rlci5lcGZsLmNoMIIBIjANBgkqhkiG9w0BAQEFAAOCAQ8AMIIBCgKCAQEAhXDw
16qPdrQi7zdicrACeNw2B59RPUiqGgMLhfIfnix+N35ty61gUWt8Mzx2aT+Tacb5
qDuJP4B5kgoxF+GdVne3qxFKA6Mp7Bql+EhEpwKGtgCFoagrx4290zgEzjgUonBU
2FzBptdW/6NwDZDJTs1zeLw99QYk2LCik08ZqAhUhSXLhPb67F7uKAA5ikEuBZdc
7AINP5knra+1MbUMddXRcBWq/FDoRZmaNyr6N4WR41Ty3MPA/aBSLfZ7SnjUnuM5
2ALqX/aB5ZC04NilkrRpTsoilZ1vclyuG5vMciCT4EAiqEx33BGqT8UghU9k+xgL
3FzfuA9IoyrckgLu4wIDAQABo10wWzAJBgNVHRMEAjAAMC8GA1UdEQQoMCaHBApa
KAeCHmljY2x1c3RlcjA4MS5pY2NsdXN0ZXIuZXBmbC5jaDAdBgNVHQ4EFgQUEF0p
2iFcJeZnSTuxbg3IO+3lccgwDQYJKoZIhvcNAQELBQADggEBADzNwBgl2sT5WoIq
6/GBXwFQUQA7rlhYYGC1d3yipEdlx3UmvJr8NB+1wVyaGPLaxaaLrDq0pL3SqIxm
3Yoi2POfymGMOjoumABYexLNtIEqDji3sebsYOkskkXyIKM/B0bT/koYtb82vie+
K/uWE1NyRWn5VzmIvK6yrZFUPCQUhmoQQA7mO/nnxvTTIkS/NsNIvIIL6FE/Sx/Y
EP72nroGX8Pt7tnROeeda5aRNboHYzxte7Qle9UQUucsN6Z/VBhBt6Z33DA3uLXg
Zihuba7PMzvLixyXGnXE3ZOscF7sRZgpo/8LuSroaElSI6ZUS+vYW3SZdtO68XCU
2Sm1epk=
-----END CERTIFICATE-----
