Certificate:
    Data:
        Version: 3 (0x2)
        Serial Number: 14457037324735059289 (0xc8a1b6d9a5659559)
    Signature Algorithm: sha256WithRSAEncryption
        Issuer: C=xx, ST=x, O=x, OU=x, CN=x
        Validity
            Not Before: Apr 28 13:43:51 2018 GMT
            Not After : Apr 28 13:43:51 2019 GMT
        Subject: C=CH, ST=VD, L=Lausanne, O=EPFL, OU=LCA1, CN=iccluster098.iccluster.epfl.ch
        Subject Public Key Info:
            Public Key Algorithm: rsaEncryption
                Public-Key: (2048 bit)
                Modulus:
                    00:b5:10:c7:f2:8b:6f:21:e0:30:c3:c4:cf:1a:bb:
                    5d:18:d7:db:73:83:da:48:6b:40:0f:84:3f:8e:61:
                    bd:9c:18:be:41:53:be:55:07:33:90:36:c8:39:ce:
                    0b:f6:fd:15:55:be:b4:16:98:c1:78:3b:b0:76:cc:
                    cb:c3:b1:2a:7e:7f:3f:0e:94:40:e5:c3:fc:ca:92:
                    5d:36:82:05:25:69:61:e4:9f:b2:f1:09:03:ac:8b:
                    9f:02:a7:c9:87:d6:b2:a0:8c:55:9d:60:52:91:59:
                    f4:34:6c:8f:e8:a9:4c:cf:cc:b2:30:16:15:ec:10:
                    35:2a:b0:65:c5:89:f8:9a:cf:2b:13:53:33:06:13:
                    2c:b4:e3:25:a6:f4:4b:ff:1b:88:cd:25:82:a2:2f:
                    67:27:2a:1f:49:c9:57:f8:3d:0d:0c:7b:0e:bc:cf:
                    29:bf:35:c5:09:88:c5:23:b2:2b:60:b7:02:44:88:
                    a4:8b:a9:2f:d6:12:f3:1c:c1:97:ec:52:c5:1a:82:
                    df:a4:89:49:ce:2d:26:4a:02:12:50:3c:27:a4:cd:
                    ff:46:0b:5d:8d:87:2c:f4:97:a5:2c:5e:85:d0:4f:
                    30:8f:15:72:09:73:08:b7:b7:20:1b:78:d4:cf:8e:
                    6f:c8:76:ed:40:01:ca:18:3d:ac:44:b1:da:b0:d6:
                    68:5d
                Exponent: 65537 (0x10001)
        X509v3 extensions:
            X509v3 Basic Constraints: 
                CA:FALSE
            X509v3 Subject Alternative Name: 
                IP Address:10.90.40.24, DNS:iccluster098.iccluster.epfl.ch
            X509v3 Subject Key Identifier: 
                E5:A2:DB:33:98:E0:1C:46:9C:41:6F:DD:EC:07:01:05:2F:AD:8A:61
    Signature Algorithm: sha256WithRSAEncryption
         9c:b4:35:07:fb:a9:44:76:1b:e2:1a:a8:cd:74:b7:f8:ca:5e:
         6c:a9:e0:5c:49:4f:ad:d4:0e:45:05:6e:58:7a:b1:70:f2:c1:
         af:cb:2b:d9:b0:04:99:5a:a1:04:e8:da:34:a8:1d:a6:ae:31:
         df:dc:bd:14:6f:f2:d3:f6:5d:63:f2:8f:aa:90:61:93:11:29:
         0f:9f:ef:36:de:1a:db:f6:3f:e0:83:fe:05:bf:23:31:22:36:
         4f:4c:ae:0d:ed:a7:4f:f3:7f:50:33:3f:b8:ec:d7:05:31:e7:
         e1:86:0d:f1:13:c4:a0:0d:a3:b3:2b:26:09:fa:73:9a:10:af:
         4f:64:07:8d:81:3a:5d:71:2d:7f:77:44:5a:ef:af:4f:63:a8:
         36:a9:13:cf:bb:40:e8:c4:72:70:c3:e6:39:b2:0c:78:71:2a:
         bf:57:88:c1:02:c0:9f:1b:09:04:b6:bb:17:12:0d:12:98:d8:
         66:ca:c6:a4:a6:fb:8b:f2:5d:6e:46:5e:1e:52:0d:65:21:67:
         b5:54:da:fd:f7:db:88:e0:cc:44:19:5d:32:8e:35:a7:1a:e3:
         28:08:db:dd:2f:36:8e:78:dc:a9:ac:8f:5e:03:e1:32:92:79:
         3e:c7:37:44:20:d6:93:a8:38:43:5f:9e:d0:55:02:7c:2f:07:
         75:0e:84:18
-----BEGIN CERTIFICATE-----
MIIDkTCCAnmgAwIBAgIJAMihttmlZZVZMA0GCSqGSIb3DQEBCwUAMD0xCzAJBgNV
BAYTAnh4MQowCAYDVQQIDAF4MQowCAYDVQQKDAF4MQowCAYDVQQLDAF4MQowCAYD
VQQDDAF4MB4XDTE4MDQyODEzNDM1MVoXDTE5MDQyODEzNDM1MVowdDELMAkGA1UE
BhMCQ0gxCzAJBgNVBAgTAlZEMREwDwYDVQQHEwhMYXVzYW5uZTENMAsGA1UEChME
RVBGTDENMAsGA1UECxMETENBMTEnMCUGA1UEAxMeaWNjbHVzdGVyMDk4LmljY2x1
c3Rlci5lcGZsLmNoMIIBIjANBgkqhkiG9w0BAQEFAAOCAQ8AMIIBCgKCAQEAtRDH
8otvIeAww8TPGrtdGNfbc4PaSGtAD4Q/jmG9nBi+QVO+VQczkDbIOc4L9v0VVb60
FpjBeDuwdszLw7Eqfn8/DpRA5cP8ypJdNoIFJWlh5J+y8QkDrIufAqfJh9ayoIxV
nWBSkVn0NGyP6KlMz8yyMBYV7BA1KrBlxYn4ms8rE1MzBhMstOMlpvRL/xuIzSWC
oi9nJyofSclX+D0NDHsOvM8pvzXFCYjFI7IrYLcCRIiki6kv1hLzHMGX7FLFGoLf
pIlJzi0mSgISUDwnpM3/RgtdjYcs9JelLF6F0E8wjxVyCXMIt7cgG3jUz45vyHbt
QAHKGD2sRLHasNZoXQIDAQABo10wWzAJBgNVHRMEAjAAMC8GA1UdEQQoMCaHBApa
KBiCHmljY2x1c3RlcjA5OC5pY2NsdXN0ZXIuZXBmbC5jaDAdBgNVHQ4EFgQU5aLb
M5jgHEacQW/d7AcBBS+timEwDQYJKoZIhvcNAQELBQADggEBAJy0NQf7qUR2G+Ia
qM10t/jKXmyp4FxJT63UDkUFblh6sXDywa/LK9mwBJlaoQTo2jSoHaauMd/cvRRv
8tP2XWPyj6qQYZMRKQ+f7zbeGtv2P+CD/gW/IzEiNk9Mrg3tp0/zf1AzP7js1wUx
5+GGDfETxKANo7MrJgn6c5oQr09kB42BOl1xLX93RFrvr09jqDapE8+7QOjEcnDD
5jmyDHhxKr9XiMECwJ8bCQS2uxcSDRKY2GbKxqSm+4vyXW5GXh5SDWUhZ7VU2v33
24jgzEQZXTKONaca4ygI290vNo543Kmsj14D4TKSeT7HN0Qg1pOoOENfntBVAnwv
B3UOhBg=
-----END CERTIFICATE-----
