Certificate:
    Data:
        Version: 3 (0x2)
        Serial Number: 14457037324735059291 (0xc8a1b6d9a565955b)
    Signature Algorithm: sha256WithRSAEncryption
        Issuer: C=xx, ST=x, O=x, OU=x, CN=x
        Validity
            Not Before: Apr 28 13:44:04 2018 GMT
            Not After : Apr 28 13:44:04 2019 GMT
        Subject: C=CH, ST=VD, L=Lausanne, O=EPFL, OU=LCA1, CN=iccluster097.iccluster.epfl.ch
        Subject Public Key Info:
            Public Key Algorithm: rsaEncryption
                Public-Key: (2048 bit)
                Modulus:
                    00:a9:04:2a:8b:6c:4b:76:7b:ef:b3:b3:08:55:68:
                    96:77:b0:8c:4a:0f:97:5f:2e:28:11:5d:e9:ce:84:
                    c6:5f:72:8f:81:02:e1:77:61:38:74:38:06:18:d0:
                    7b:c2:fd:95:0f:8d:93:42:46:8d:27:66:be:0e:4e:
                    e4:9a:82:c3:36:3e:99:e8:35:f1:1c:52:1a:84:8f:
                    6e:18:fe:22:3b:96:75:8f:3f:10:1d:96:f3:d4:f2:
                    29:31:6a:96:3b:7d:4b:c5:c2:ee:3d:3a:71:35:65:
                    27:5c:d4:2d:db:fb:43:4b:93:08:0c:ab:4a:c8:a0:
                    3b:03:95:16:1b:1e:79:14:ae:e2:7e:76:d9:0f:72:
                    91:fa:3e:05:17:4e:89:b1:f9:1c:01:c4:21:5d:1e:
                    69:ba:22:09:a7:d2:00:d2:7d:0b:b1:1d:74:ff:cb:
                    2e:d5:b0:f3:fc:bb:73:eb:32:ae:85:64:a5:48:d0:
                    7c:90:ff:1d:23:dc:fc:2a:a7:db:9c:d2:ea:36:5a:
                    12:5d:8f:31:81:91:68:23:e9:28:dc:e6:89:dd:30:
                    03:10:41:f3:2d:6b:58:b2:af:ef:20:e5:18:c8:27:
                    88:93:95:44:5f:34:f0:fd:6f:bb:81:9c:9b:8a:62:
                    fc:78:bd:5e:77:01:ab:8b:d1:ea:78:69:b1:2b:73:
                    22:cd
                Exponent: 65537 (0x10001)
        X509v3 extensions:
            X509v3 Basic Constraints: 
                CA:FALSE
            X509v3 Subject Alternative Name: 
                IP Address:10.90.40.23, DNS:iccluster097.iccluster.epfl.ch
            X509v3 Subject Key Identifier: 
                CF:A4:58:92:ED:79:3F:E5:F1:A1:7E:14:EC:46:3F:A1:7A:01:B4:EE
    Signature Algorithm: sha256WithRSAEncryption
         98:80:0f:d7:c5:e4:20:25:c6:8c:4e:26:22:93:ad:40:01:22:
         72:16:36:76:fe:d4:2e:c2:c9:c5:81:dd:35:08:cf:9b:b9:7a:
         d9:d4:56:b9:eb:41:02:b9:ba:d5:0a:71:02:a8:50:31:e6:f3:
         1a:cd:be:71:72:19:ea:3d:cf:16:51:24:55:29:8a:ff:ad:33:
         a8:3e:e4:53:07:51:35:35:66:6d:01:d7:62:8e:ea:e6:27:98:
         a7:39:03:5e:ba:c8:c1:26:bb:67:01:dd:fb:f0:29:fb:c5:c1:
         06:b6:68:4b:29:ec:3e:db:90:f8:40:18:45:31:83:23:da:f4:
         35:69:08:73:c8:db:9c:e2:d8:c4:98:08:fb:e3:b8:99:05:f5:
         cc:22:84:62:d5:f5:a9:ab:e5:99:4d:b6:bd:51:5a:12:30:ca:
         81:7f:77:ed:0a:3f:79:1b:56:17:6e:e9:d5:ed:aa:f7:68:08:
         be:f1:12:fe:b5:49:aa:fb:c9:68:9a:ef:e4:c7:50:a2:ea:b5:
         ff:17:fa:28:a0:f8:93:6d:28:7a:cb:38:1d:62:8f:29:36:16:
         2b:36:d1:02:75:ca:cd:59:19:e0:db:70:f8:c4:f0:9e:57:56:
         c7:24:6f:43:9b:d7:cb:ee:95:f9:5d:e3:0d:aa:99:d7:35:0f:
         14:73:50:f2
-----BEGIN CERTIFICATE-----
MIIDkTCCAnmgAwIBAgIJAMihttmlZZVbMA0GCSqGSIb3DQEBCwUAMD0xCzAJBgNV
BAYTAnh4MQowCAYDVQQIDAF4MQowCAYDVQQKDAF4MQowCAYDVQQLDAF4MQowCAYD
VQQDDAF4MB4XDTE4MDQyODEzNDQwNFoXDTE5MDQyODEzNDQwNFowdDELMAkGA1UE
BhMCQ0gxCzAJBgNVBAgTAlZEMREwDwYDVQQHEwhMYXVzYW5uZTENMAsGA1UEChME
RVBGTDENMAsGA1UECxMETENBMTEnMCUGA1UEAxMeaWNjbHVzdGVyMDk3LmljY2x1
c3Rlci5lcGZsLmNoMIIBIjANBgkqhkiG9w0BAQEFAAOCAQ8AMIIBCgKCAQEAqQQq
i2xLdnvvs7MIVWiWd7CMSg+XXy4oEV3pzoTGX3KPgQLhd2E4dDgGGNB7wv2VD42T
QkaNJ2a+Dk7kmoLDNj6Z6DXxHFIahI9uGP4iO5Z1jz8QHZbz1PIpMWqWO31LxcLu
PTpxNWUnXNQt2/tDS5MIDKtKyKA7A5UWGx55FK7ifnbZD3KR+j4FF06JsfkcAcQh
XR5puiIJp9IA0n0LsR10/8su1bDz/Ltz6zKuhWSlSNB8kP8dI9z8KqfbnNLqNloS
XY8xgZFoI+ko3OaJ3TADEEHzLWtYsq/vIOUYyCeIk5VEXzTw/W+7gZybimL8eL1e
dwGri9HqeGmxK3MizQIDAQABo10wWzAJBgNVHRMEAjAAMC8GA1UdEQQoMCaHBApa
KBeCHmljY2x1c3RlcjA5Ny5pY2NsdXN0ZXIuZXBmbC5jaDAdBgNVHQ4EFgQUz6RY
ku15P+XxoX4U7EY/oXoBtO4wDQYJKoZIhvcNAQELBQADggEBAJiAD9fF5CAlxoxO
JiKTrUABInIWNnb+1C7CycWB3TUIz5u5etnUVrnrQQK5utUKcQKoUDHm8xrNvnFy
Geo9zxZRJFUpiv+tM6g+5FMHUTU1Zm0B12KO6uYnmKc5A166yMEmu2cB3fvwKfvF
wQa2aEsp7D7bkPhAGEUxgyPa9DVpCHPI25zi2MSYCPvjuJkF9cwihGLV9amr5ZlN
tr1RWhIwyoF/d+0KP3kbVhdu6dXtqvdoCL7xEv61Sar7yWia7+THUKLqtf8X+iig
+JNtKHrLOB1ijyk2Fis20QJ1ys1ZGeDbcPjE8J5XVsckb0Ob18vulfld4w2qmdc1
DxRzUPI=
-----END CERTIFICATE-----
