Certificate:
    Data:
        Version: 3 (0x2)
        Serial Number: 14457037324735059295 (0xc8a1b6d9a565955f)
    Signature Algorithm: sha256WithRSAEncryption
        Issuer: C=xx, ST=x, O=x, OU=x, CN=x
        Validity
            Not Before: Apr 28 13:44:28 2018 GMT
            Not After : Apr 28 13:44:28 2019 GMT
        Subject: C=CH, ST=VD, L=Lausanne, O=EPFL, OU=LCA1, CN=iccluster098.iccluster.epfl.ch
        Subject Public Key Info:
            Public Key Algorithm: rsaEncryption
                Public-Key: (2048 bit)
                Modulus:
                    00:9f:9f:6c:c4:ec:1b:80:0e:82:07:11:d0:7c:aa:
                    a6:4c:e6:aa:70:34:80:9b:a3:96:72:77:83:c2:32:
                    c8:57:0b:4e:ac:0b:be:15:01:f4:17:be:a4:bb:fc:
                    dc:c9:39:42:2e:f7:8b:bb:fa:87:d7:e1:8a:80:8f:
                    98:a8:f4:23:e8:57:59:5b:3e:5e:44:c1:7a:10:88:
                    17:06:c2:84:27:bc:dc:ee:7d:9a:d0:a4:13:20:ed:
                    66:1c:e4:b5:9f:7b:a4:06:34:3a:85:56:cc:f1:58:
                    eb:b3:4f:0a:c7:51:7e:a5:e3:de:75:ee:90:7e:18:
                    43:ef:66:86:99:45:a3:49:1c:0e:2e:05:01:c0:04:
                    5e:a8:5d:41:98:2c:58:c8:79:53:db:26:7b:4a:fb:
                    07:9a:b0:17:fc:fe:98:98:fb:cd:62:74:a2:c2:d2:
                    2c:af:c3:2d:ee:1e:b5:6c:1e:4c:6a:76:85:6d:4a:
                    be:7f:ac:63:c8:4c:54:98:ae:a4:ce:61:60:b8:98:
                    17:e6:43:69:72:3a:83:ff:cb:59:0f:53:21:07:2c:
                    f3:b7:8d:c4:9c:f4:18:c4:af:c2:20:fc:19:8d:23:
                    a7:79:ef:b3:91:d5:27:19:02:57:ca:3c:6f:2e:14:
                    ae:bd:83:19:f2:fb:a8:5e:a7:a7:2c:12:69:69:28:
                    60:7f
                Exponent: 65537 (0x10001)
        X509v3 extensions:
            X509v3 Basic Constraints: 
                CA:FALSE
            X509v3 Subject Alternative Name: 
                IP Address:10.90.40.24, DNS:iccluster098.iccluster.epfl.ch
            X509v3 Subject Key Identifier: 
                15:25:E7:BE:DC:AF:F3:6E:25:2E:36:EA:9D:F9:54:B3:4B:68:40:B9
    Signature Algorithm: sha256WithRSAEncryption
         2e:38:5b:ff:1a:b4:02:76:15:31:ea:ae:c1:39:9c:9a:a8:0a:
         e6:ea:51:ac:73:39:f3:eb:dc:30:c7:2b:ae:7e:17:b5:47:b8:
         22:7e:41:29:b4:e2:46:90:11:68:8c:5e:a4:e8:01:d9:10:4c:
         ca:31:9b:ae:a3:5e:0f:00:2b:d7:85:8c:b5:0f:22:7f:76:90:
         c2:08:9f:e7:6b:97:54:4e:bb:d8:1e:9c:df:75:d5:06:3d:67:
         5b:c8:55:f4:9a:80:b6:ed:b0:11:67:ab:27:61:1c:11:ab:fe:
         ca:c6:95:97:28:72:4e:23:33:d9:a0:c2:fa:a9:32:20:43:ea:
         d7:4a:21:25:96:c4:f3:28:d7:93:27:e6:76:a7:be:e8:28:48:
         ec:de:a6:41:d9:6e:b8:da:13:26:bf:2c:79:16:b9:2a:40:75:
         f4:cc:a2:59:ee:02:a0:b0:2f:89:25:14:e5:20:6e:70:92:f7:
         04:89:54:28:1e:1e:e1:ba:cc:32:a2:e4:38:fa:13:50:97:73:
         8b:34:ab:7c:33:9e:b2:a6:92:c3:af:bf:18:1d:a8:c7:f7:09:
         c0:0b:ab:66:8d:bc:cc:c1:6c:e2:1f:08:fa:70:df:ba:1e:2a:
         c7:82:0f:ff:68:0f:59:d8:2e:41:73:d1:59:7b:2f:86:a3:29:
         0f:ab:74:6d
-----BEGIN CERTIFICATE-----
MIIDkTCCAnmgAwIBAgIJAMihttmlZZVfMA0GCSqGSIb3DQEBCwUAMD0xCzAJBgNV
BAYTAnh4MQowCAYDVQQIDAF4MQowCAYDVQQKDAF4MQowCAYDVQQLDAF4MQowCAYD
VQQDDAF4MB4XDTE4MDQyODEzNDQyOFoXDTE5MDQyODEzNDQyOFowdDELMAkGA1UE
BhMCQ0gxCzAJBgNVBAgTAlZEMREwDwYDVQQHEwhMYXVzYW5uZTENMAsGA1UEChME
RVBGTDENMAsGA1UECxMETENBMTEnMCUGA1UEAxMeaWNjbHVzdGVyMDk4LmljY2x1
c3Rlci5lcGZsLmNoMIIBIjANBgkqhkiG9w0BAQEFAAOCAQ8AMIIBCgKCAQEAn59s
xOwbgA6CBxHQfKqmTOaqcDSAm6OWcneDwjLIVwtOrAu+FQH0F76ku/zcyTlCLveL
u/qH1+GKgI+YqPQj6FdZWz5eRMF6EIgXBsKEJ7zc7n2a0KQTIO1mHOS1n3ukBjQ6
hVbM8Vjrs08Kx1F+pePede6QfhhD72aGmUWjSRwOLgUBwAReqF1BmCxYyHlT2yZ7
SvsHmrAX/P6YmPvNYnSiwtIsr8Mt7h61bB5ManaFbUq+f6xjyExUmK6kzmFguJgX
5kNpcjqD/8tZD1MhByzzt43EnPQYxK/CIPwZjSOnee+zkdUnGQJXyjxvLhSuvYMZ
8vuoXqenLBJpaShgfwIDAQABo10wWzAJBgNVHRMEAjAAMC8GA1UdEQQoMCaHBApa
KBiCHmljY2x1c3RlcjA5OC5pY2NsdXN0ZXIuZXBmbC5jaDAdBgNVHQ4EFgQUFSXn
vtyv824lLjbqnflUs0toQLkwDQYJKoZIhvcNAQELBQADggEBAC44W/8atAJ2FTHq
rsE5nJqoCubqUaxzOfPr3DDHK65+F7VHuCJ+QSm04kaQEWiMXqToAdkQTMoxm66j
Xg8AK9eFjLUPIn92kMIIn+drl1ROu9genN911QY9Z1vIVfSagLbtsBFnqydhHBGr
/srGlZcock4jM9mgwvqpMiBD6tdKISWWxPMo15Mn5nanvugoSOzepkHZbrjaEya/
LHkWuSpAdfTMolnuAqCwL4klFOUgbnCS9wSJVCgeHuG6zDKi5Dj6E1CXc4s0q3wz
nrKmksOvvxgdqMf3CcALq2aNvMzBbOIfCPpw37oeKseCD/9oD1nYLkFz0Vl7L4aj
KQ+rdG0=
-----END CERTIFICATE-----
