Certificate:
    Data:
        Version: 3 (0x2)
        Serial Number: 14457037324735059292 (0xc8a1b6d9a565955c)
    Signature Algorithm: sha256WithRSAEncryption
        Issuer: C=xx, ST=x, O=x, OU=x, CN=x
        Validity
            Not Before: Apr 28 13:44:10 2018 GMT
            Not After : Apr 28 13:44:10 2019 GMT
        Subject: C=CH, ST=VD, L=Lausanne, O=EPFL, OU=LCA1, CN=iccluster098.iccluster.epfl.ch
        Subject Public Key Info:
            Public Key Algorithm: rsaEncryption
                Public-Key: (2048 bit)
                Modulus:
                    00:de:93:9a:88:70:d6:c2:6f:ef:7f:05:a0:da:f4:
                    4b:f8:62:88:d1:1c:dd:ef:1e:50:b1:4a:1c:63:6d:
                    67:2c:31:67:92:61:cd:65:a0:2d:93:50:04:13:d3:
                    9e:b8:94:b5:fd:13:45:16:15:31:84:bd:00:9e:d0:
                    82:93:14:4d:7c:8c:88:9b:23:5a:22:d8:72:7b:be:
                    69:18:6b:c9:84:df:c1:9a:ec:e9:ff:7c:0a:1d:78:
                    37:82:db:e2:4f:7f:de:61:6b:2b:a1:ca:79:3b:17:
                    be:6e:d7:6d:36:30:2e:4c:f0:2d:a5:54:04:13:ed:
                    be:14:fe:95:b6:02:77:de:a6:b8:d2:be:ac:27:b5:
                    a4:9f:94:49:a6:7f:bb:41:3c:80:18:2b:9d:85:7b:
                    87:ad:78:8a:5d:24:70:71:99:1b:2d:9d:d7:cb:5f:
                    26:b5:9b:e6:f8:a1:bc:a0:ab:8d:b4:6f:6c:42:d7:
                    e5:8d:68:62:a3:0f:5d:f4:34:2e:8e:1e:a3:d7:9b:
                    0f:34:82:1c:48:54:2d:6e:b0:7d:81:74:a3:4d:55:
                    ed:9b:36:9c:90:c0:d3:7d:3b:36:32:e3:58:f3:e3:
                    b2:3d:69:33:6d:07:19:b7:d8:56:f9:32:af:c7:21:
                    4c:69:e0:29:1b:c2:fb:e7:62:97:7b:39:73:09:1a:
                    de:09
                Exponent: 65537 (0x10001)
        X509v3 extensions:
            X509v3 Basic Constraints: 
                CA:FALSE
            X509v3 Subject Alternative Name: 
                IP Address:10.90.40.24, DNS:iccluster098.iccluster.epfl.ch
            X509v3 Subject Key Identifier: 
                68:23:5C:DA:5B:80:05:77:75:EA:B9:FB:9B:17:BF:D8:EA:24:03:58
    Signature Algorithm: sha256WithRSAEncryption
         e1:de:3b:6d:7b:20:ba:29:ae:1c:d8:be:26:c7:e8:98:ae:21:
         62:2a:91:f8:23:21:29:e4:c9:71:4e:c3:6b:ef:b2:1e:9b:cc:
         6c:3a:91:a4:ce:34:fc:93:74:dc:bd:0c:ae:2a:2f:8a:e2:38:
         94:6b:fa:10:d0:d9:ef:40:c9:7f:0e:90:8d:5e:e6:27:66:6d:
         06:6a:e4:2b:ef:ae:d4:45:70:f6:c4:d5:fd:6c:8a:f3:ca:13:
         34:31:62:64:69:bd:44:35:c2:5c:01:e9:41:1b:64:ab:b6:ec:
         22:5e:ac:95:08:c6:ae:fa:01:c2:66:1f:50:56:a6:01:8b:06:
         a1:e4:52:76:43:6e:f3:85:a3:d3:4c:21:11:58:65:60:44:d2:
         5a:75:9b:74:28:b7:db:6c:ac:2a:53:a1:4f:6f:a6:78:2a:09:
         0f:6b:6e:8c:04:12:b3:72:9f:46:75:9b:3f:0a:15:54:12:2b:
         90:70:b7:30:7f:f3:0c:99:d9:06:06:c2:55:19:bd:29:36:b8:
         d8:d5:15:24:d7:25:26:bf:c0:68:70:2c:bd:87:8f:3e:66:18:
         79:0c:9d:f9:d0:de:dc:7f:23:63:a4:3b:7f:a2:a4:30:29:5f:
         ea:e0:fc:e5:50:c0:58:a2:de:ad:7c:b1:5d:4e:8d:56:49:cd:
         26:48:25:44
-----BEGIN CERTIFICATE-----
MIIDkTCCAnmgAwIBAgIJAMihttmlZZVcMA0GCSqGSIb3DQEBCwUAMD0xCzAJBgNV
BAYTAnh4MQowCAYDVQQIDAF4MQowCAYDVQQKDAF4MQowCAYDVQQLDAF4MQowCAYD
VQQDDAF4MB4XDTE4MDQyODEzNDQxMFoXDTE5MDQyODEzNDQxMFowdDELMAkGA1UE
BhMCQ0gxCzAJBgNVBAgTAlZEMREwDwYDVQQHEwhMYXVzYW5uZTENMAsGA1UEChME
RVBGTDENMAsGA1UECxMETENBMTEnMCUGA1UEAxMeaWNjbHVzdGVyMDk4LmljY2x1
c3Rlci5lcGZsLmNoMIIBIjANBgkqhkiG9w0BAQEFAAOCAQ8AMIIBCgKCAQEA3pOa
iHDWwm/vfwWg2vRL+GKI0Rzd7x5QsUocY21nLDFnkmHNZaAtk1AEE9OeuJS1/RNF
FhUxhL0AntCCkxRNfIyImyNaIthye75pGGvJhN/Bmuzp/3wKHXg3gtviT3/eYWsr
ocp5Oxe+btdtNjAuTPAtpVQEE+2+FP6VtgJ33qa40r6sJ7Wkn5RJpn+7QTyAGCud
hXuHrXiKXSRwcZkbLZ3Xy18mtZvm+KG8oKuNtG9sQtfljWhiow9d9DQujh6j15sP
NIIcSFQtbrB9gXSjTVXtmzackMDTfTs2MuNY8+OyPWkzbQcZt9hW+TKvxyFMaeAp
G8L752KXezlzCRreCQIDAQABo10wWzAJBgNVHRMEAjAAMC8GA1UdEQQoMCaHBApa
KBiCHmljY2x1c3RlcjA5OC5pY2NsdXN0ZXIuZXBmbC5jaDAdBgNVHQ4EFgQUaCNc
2luABXd16rn7mxe/2OokA1gwDQYJKoZIhvcNAQELBQADggEBAOHeO217ILoprhzY
vibH6JiuIWIqkfgjISnkyXFOw2vvsh6bzGw6kaTONPyTdNy9DK4qL4riOJRr+hDQ
2e9AyX8OkI1e5idmbQZq5CvvrtRFcPbE1f1sivPKEzQxYmRpvUQ1wlwB6UEbZKu2
7CJerJUIxq76AcJmH1BWpgGLBqHkUnZDbvOFo9NMIRFYZWBE0lp1m3Qot9tsrCpT
oU9vpngqCQ9rbowEErNyn0Z1mz8KFVQSK5BwtzB/8wyZ2QYGwlUZvSk2uNjVFSTX
JSa/wGhwLL2Hjz5mGHkMnfnQ3tx/I2OkO3+ipDApX+rg/OVQwFii3q18sV1OjVZJ
zSZIJUQ=
-----END CERTIFICATE-----
