Certificate:
    Data:
        Version: 3 (0x2)
        Serial Number: 14457037324735059286 (0xc8a1b6d9a5659556)
    Signature Algorithm: sha256WithRSAEncryption
        Issuer: C=xx, ST=x, O=x, OU=x, CN=x
        Validity
            Not Before: Apr 28 13:43:34 2018 GMT
            Not After : Apr 27 13:43:34 2021 GMT
        Subject: C=xx, ST=x, O=x, OU=x, CN=x
        Subject Public Key Info:
            Public Key Algorithm: rsaEncryption
                Public-Key: (2048 bit)
                Modulus:
                    00:e9:32:ab:77:b9:15:f8:2f:1a:db:18:62:bd:b6:
                    bf:2d:38:34:5f:f1:ac:67:e3:5d:e2:39:12:1c:24:
                    dc:54:7d:52:a6:36:47:8a:e5:3b:f2:77:e8:78:5b:
                    0a:75:28:30:b3:99:96:16:72:9c:06:d0:20:32:15:
                    06:ab:1b:1d:d2:2e:9a:07:93:d1:70:b4:a2:be:aa:
                    f9:55:d2:e0:41:25:0b:e3:32:38:d3:d7:5c:c3:87:
                    1f:f2:58:dd:f9:42:87:7a:cb:c1:21:29:86:62:8a:
                    f9:83:05:07:ee:e3:7f:c4:a0:a2:fc:29:bb:f6:8e:
                    f6:00:8d:61:6b:2f:cd:33:26:01:33:c2:16:9f:3c:
                    a1:30:a6:c7:0d:77:4f:69:7f:d1:b9:ec:8d:a1:6b:
                    bd:e7:47:89:19:d9:1e:ae:b2:45:3e:33:6a:bf:c8:
                    85:d6:31:e2:75:12:27:7f:5c:26:45:46:12:4b:7d:
                    68:0f:7d:35:39:3c:ef:4f:01:25:8f:29:30:a8:54:
                    e0:18:d1:c9:18:84:98:b0:76:a1:9c:02:23:b5:4e:
                    dc:08:64:23:8e:ec:86:00:06:e8:dd:7d:dc:2d:b7:
                    df:20:75:1a:5c:17:02:d4:d2:cc:6d:b6:83:ed:8d:
                    ce:11:b6:e0:d4:24:c9:87:0c:fe:eb:1d:fa:fb:4a:
                    3b:ed
                Exponent: 65537 (0x10001)
        X509v3 extensions:
            X509v3 Subject Key Identifier: 
                39:97:13:62:5C:3E:9D:44:70:4B:4F:B5:67:CE:94:7F:49:23:04:B9
            X509v3 Authority Key Identifier: 
                keyid:39:97:13:62:5C:3E:9D:44:70:4B:4F:B5:67:CE:94:7F:49:23:04:B9

            X509v3 Basic Constraints: 
                CA:TRUE
    Signature Algorithm: sha256WithRSAEncryption
         12:8e:80:d2:b0:af:8f:08:0b:53:fc:f5:42:25:86:c8:f1:a4:
         7b:cb:6d:de:ac:ee:06:60:af:31:44:ba:9c:3d:be:77:4e:8a:
         4b:ee:bd:18:83:52:3c:ce:a8:e8:d3:5c:a0:d6:ef:4d:c6:bb:
         95:0b:e9:11:79:67:3a:3a:ae:c6:01:f8:7d:0c:54:15:6e:29:
         93:1d:12:91:2b:79:ca:ff:a5:30:20:5b:05:79:4c:2e:5b:ce:
         73:64:97:cd:52:ef:3b:11:19:1c:72:5b:2f:f0:54:9d:6e:f6:
         f6:36:31:73:80:13:3b:6d:65:ac:da:f4:fa:c1:d6:da:58:c4:
         28:92:4c:e1:a6:50:03:30:9d:5c:97:d2:72:41:d3:31:67:7e:
         71:2e:67:b6:9f:b3:06:2d:a3:9c:35:5e:bb:d8:22:72:ba:15:
         a4:23:61:9f:19:2f:c6:75:8e:6d:fd:4d:10:01:8a:8c:b1:43:
         2a:df:83:78:c2:f4:15:1c:3e:18:9f:5b:6d:4a:c2:d4:70:ac:
         c2:83:46:dd:d7:76:aa:cd:1a:88:54:2d:b7:49:d5:f6:d7:87:
         10:51:bc:32:b5:14:ec:91:27:8e:26:7a:c3:d7:e1:d6:c7:91:
         04:93:29:6c:18:69:cb:a1:9e:8f:a0:fe:fc:6a:a3:1c:1a:53:
         a8:cb:2f:01
-----BEGIN CERTIFICATE-----
MIIDTTCCAjWgAwIBAgIJAMihttmlZZVWMA0GCSqGSIb3DQEBCwUAMD0xCzAJBgNV
BAYTAnh4MQowCAYDVQQIDAF4MQowCAYDVQQKDAF4MQowCAYDVQQLDAF4MQowCAYD
VQQDDAF4MB4XDTE4MDQyODEzNDMzNFoXDTIxMDQyNzEzNDMzNFowPTELMAkGA1UE
BhMCeHgxCjAIBgNVBAgMAXgxCjAIBgNVBAoMAXgxCjAIBgNVBAsMAXgxCjAIBgNV
BAMMAXgwggEiMA0GCSqGSIb3DQEBAQUAA4IBDwAwggEKAoIBAQDpMqt3uRX4Lxrb
GGK9tr8tODRf8axn413iORIcJNxUfVKmNkeK5Tvyd+h4Wwp1KDCzmZYWcpwG0CAy
FQarGx3SLpoHk9FwtKK+qvlV0uBBJQvjMjjT11zDhx/yWN35Qod6y8EhKYZiivmD
BQfu43/EoKL8Kbv2jvYAjWFrL80zJgEzwhafPKEwpscNd09pf9G57I2ha73nR4kZ
2R6uskU+M2q/yIXWMeJ1Eid/XCZFRhJLfWgPfTU5PO9PASWPKTCoVOAY0ckYhJiw
dqGcAiO1TtwIZCOO7IYABujdfdwtt98gdRpcFwLU0sxttoPtjc4RtuDUJMmHDP7r
Hfr7SjvtAgMBAAGjUDBOMB0GA1UdDgQWBBQ5lxNiXD6dRHBLT7VnzpR/SSMEuTAf
BgNVHSMEGDAWgBQ5lxNiXD6dRHBLT7VnzpR/SSMEuTAMBgNVHRMEBTADAQH/MA0G
CSqGSIb3DQEBCwUAA4IBAQASjoDSsK+PCAtT/PVCJYbI8aR7y23erO4GYK8xRLqc
Pb53TopL7r0Yg1I8zqjo01yg1u9NxruVC+kReWc6Oq7GAfh9DFQVbimTHRKRK3nK
/6UwIFsFeUwuW85zZJfNUu87ERkcclsv8FSdbvb2NjFzgBM7bWWs2vT6wdbaWMQo
kkzhplADMJ1cl9JyQdMxZ35xLme2n7MGLaOcNV672CJyuhWkI2GfGS/GdY5t/U0Q
AYqMsUMq34N4wvQVHD4Yn1ttSsLUcKzCg0bd13aqzRqIVC23SdX214cQUbwytRTs
kSeOJnrD1+HWx5EEkylsGGnLoZ6PoP78aqMcGlOoyy8B
-----END CERTIFICATE-----
