Certificate:
    Data:
        Version: 3 (0x2)
        Serial Number: 16465221603845598606 (0xe48037cfed4ded8e)
    Signature Algorithm: sha256WithRSAEncryption
        Issuer: C=VD, ST=Lausanne, O=EPFL, OU=LCA1, CN=MedCo
        Validity
            Not Before: Jun 29 11:37:24 2018 GMT
            Not After : Jun 28 11:37:24 2021 GMT
        Subject: C=VD, ST=Lausanne, O=EPFL, OU=LCA1, CN=MedCo
        Subject Public Key Info:
            Public Key Algorithm: rsaEncryption
                Public-Key: (2048 bit)
                Modulus:
                    00:e8:e5:43:a2:94:6d:5c:8d:0f:fe:99:7b:2a:60:
                    57:d1:cc:96:da:09:fc:90:ca:66:7e:ce:31:c8:b5:
                    75:b3:3a:d2:bd:ee:d0:42:7d:12:de:d1:2c:15:b0:
                    1e:0d:a6:90:4f:40:c8:98:8e:00:85:7c:ae:10:54:
                    ca:43:f0:eb:f8:a6:89:3b:75:14:fe:bd:6c:40:02:
                    27:21:26:e3:e4:b3:65:a0:93:ea:25:93:89:ac:63:
                    91:a8:41:8f:66:f7:c6:c8:67:86:bd:60:07:06:a0:
                    8e:4b:2c:22:7e:79:96:96:68:41:3f:0f:ec:85:ce:
                    05:16:10:9b:8d:2c:bc:d5:7e:b7:3e:bc:78:97:31:
                    2f:33:8c:63:02:81:de:70:7c:57:25:f3:c5:99:0a:
                    39:9e:6d:d4:ca:da:0a:c7:59:52:18:50:b8:00:28:
                    fc:bf:f9:2a:ce:ec:89:2d:76:cc:ec:3c:54:3d:e9:
                    da:ac:ea:01:5e:b2:7c:d8:87:38:a3:88:bf:23:66:
                    78:f3:98:eb:82:1f:91:94:0b:e6:2e:f1:b2:9f:45:
                    f2:e4:b2:b5:57:16:73:3f:9d:ff:37:02:ad:d6:47:
                    7e:b7:47:60:55:04:eb:dc:ac:27:6d:b4:fc:f4:ce:
                    9b:b3:3b:82:b1:ba:e6:cc:52:59:47:f1:9d:bc:01:
                    74:55
                Exponent: 65537 (0x10001)
        X509v3 extensions:
            X509v3 Subject Key Identifier: 
                B0:EF:4A:EC:AB:07:CA:99:70:DD:77:0F:39:80:60:4A:72:21:A6:88
            X509v3 Authority Key Identifier: 
                keyid:B0:EF:4A:EC:AB:07:CA:99:70:DD:77:0F:39:80:60:4A:72:21:A6:88

            X509v3 Basic Constraints: 
                CA:TRUE
    Signature Algorithm: sha256WithRSAEncryption
         d0:bb:9f:33:73:6e:03:b7:42:7d:50:ba:c9:a7:b0:db:83:0a:
         12:f6:35:5e:10:7f:d9:a7:07:20:1d:88:6c:8f:0e:aa:3c:32:
         8e:14:2c:4d:39:6e:e9:7f:a6:21:46:c3:d7:e4:f1:b0:14:5b:
         1d:23:82:ec:22:8e:14:97:1a:ff:fe:ed:4c:7d:88:97:e3:a9:
         5d:5d:88:68:c2:99:9d:8b:16:64:23:bc:37:59:2f:9b:0f:06:
         ca:bc:ac:31:03:a9:2a:38:e0:6d:06:e7:d0:dd:16:84:2c:2b:
         e4:58:bc:67:bf:77:d7:72:09:5a:e6:80:64:f9:7b:ce:75:77:
         de:9c:49:06:92:19:d8:b8:c4:75:7d:3c:15:1f:4d:a6:b2:35:
         c2:2d:37:57:21:4f:a5:31:1b:a7:1c:86:ab:bf:ad:d1:cd:10:
         a8:c5:38:c0:21:a4:5d:60:98:2f:b8:4e:3e:c8:b2:7f:c7:03:
         7e:58:27:f9:42:cd:6b:18:a6:21:c7:91:17:45:2b:68:58:b5:
         17:d8:93:0d:79:f3:02:2f:83:46:16:09:d9:1d:8b:71:a0:c2:
         24:91:ed:58:b6:4d:95:94:45:86:31:4a:d0:fa:59:32:bc:67:
         e5:f7:ce:0d:14:98:2b:be:63:89:08:97:d3:76:00:34:77:5f:
         b6:db:50:0e
-----BEGIN CERTIFICATE-----
MIIDbzCCAlegAwIBAgIJAOSAN8/tTe2OMA0GCSqGSIb3DQEBCwUAME4xCzAJBgNV
BAYTAlZEMREwDwYDVQQIDAhMYXVzYW5uZTENMAsGA1UECgwERVBGTDENMAsGA1UE
CwwETENBMTEOMAwGA1UEAwwFTWVkQ28wHhcNMTgwNjI5MTEzNzI0WhcNMjEwNjI4
MTEzNzI0WjBOMQswCQYDVQQGEwJWRDERMA8GA1UECAwITGF1c2FubmUxDTALBgNV
BAoMBEVQRkwxDTALBgNVBAsMBExDQTExDjAMBgNVBAMMBU1lZENvMIIBIjANBgkq
hkiG9w0BAQEFAAOCAQ8AMIIBCgKCAQEA6OVDopRtXI0P/pl7KmBX0cyW2gn8kMpm
fs4xyLV1szrSve7QQn0S3tEsFbAeDaaQT0DImI4AhXyuEFTKQ/Dr+KaJO3UU/r1s
QAInISbj5LNloJPqJZOJrGORqEGPZvfGyGeGvWAHBqCOSywifnmWlmhBPw/shc4F
FhCbjSy81X63Prx4lzEvM4xjAoHecHxXJfPFmQo5nm3UytoKx1lSGFC4ACj8v/kq
zuyJLXbM7DxUPenarOoBXrJ82Ic4o4i/I2Z485jrgh+RlAvmLvGyn0Xy5LK1VxZz
P53/NwKt1kd+t0dgVQTr3KwnbbT89M6bszuCsbrmzFJZR/GdvAF0VQIDAQABo1Aw
TjAdBgNVHQ4EFgQUsO9K7KsHyplw3XcPOYBgSnIhpogwHwYDVR0jBBgwFoAUsO9K
7KsHyplw3XcPOYBgSnIhpogwDAYDVR0TBAUwAwEB/zANBgkqhkiG9w0BAQsFAAOC
AQEA0LufM3NuA7dCfVC6yaew24MKEvY1XhB/2acHIB2IbI8OqjwyjhQsTTlu6X+m
IUbD1+TxsBRbHSOC7CKOFJca//7tTH2Il+OpXV2IaMKZnYsWZCO8N1kvmw8Gyrys
MQOpKjjgbQbn0N0WhCwr5Fi8Z79313IJWuaAZPl7znV33pxJBpIZ2LjEdX08FR9N
prI1wi03VyFPpTEbpxyGq7+t0c0QqMU4wCGkXWCYL7hOPsiyf8cDflgn+ULNaxim
IceRF0UraFi1F9iTDXnzAi+DRhYJ2R2LcaDCJJHtWLZNlZRFhjFK0PpZMrxn5ffO
DRSYK75jiQiX03YANHdftttQDg==
-----END CERTIFICATE-----
