Certificate:
    Data:
        Version: 3 (0x2)
        Serial Number: 16465221603845598607 (0xe48037cfed4ded8f)
    Signature Algorithm: sha256WithRSAEncryption
        Issuer: C=VD, ST=Lausanne, O=EPFL, OU=LCA1, CN=MedCo
        Validity
            Not Before: Jun 29 11:37:27 2018 GMT
            Not After : Jun 29 11:37:27 2019 GMT
        Subject: C=CH, ST=VD, L=Lausanne, O=EPFL, OU=LCA1, CN=iccluster032.iccluster.epfl.ch
        Subject Public Key Info:
            Public Key Algorithm: rsaEncryption
                Public-Key: (2048 bit)
                Modulus:
                    00:89:eb:36:da:d1:f1:74:39:0f:75:be:9b:a8:fe:
                    0c:90:11:3f:2f:45:47:69:f3:65:a3:08:24:01:cd:
                    02:33:ae:12:fa:06:7e:fa:b9:8a:81:29:ac:78:83:
                    1e:c8:0f:8d:b1:8d:6d:f7:92:51:e6:52:b1:da:a0:
                    6c:1f:be:92:56:79:16:b4:06:95:f9:ec:e8:64:0a:
                    83:1b:54:17:6c:8e:b5:f3:1a:4e:85:bb:ee:bd:6f:
                    8c:0e:08:e0:ad:cd:97:a8:27:4d:79:00:a1:89:46:
                    0a:9f:00:54:95:1f:30:8b:62:26:a9:b6:94:5b:f5:
                    11:c5:86:af:2a:bc:8d:0c:33:b7:1f:70:3e:27:af:
                    40:66:c4:cd:d2:ca:84:04:f3:43:30:a4:c2:46:0c:
                    91:d9:cb:e8:fa:0d:ae:d1:6c:26:78:6b:00:ee:bd:
                    d2:4c:7f:dd:11:95:43:f3:08:04:bd:e5:be:f0:f9:
                    e0:bc:29:cd:54:71:fb:58:8d:0b:b9:f0:ab:d2:e4:
                    47:f6:b7:1a:9b:24:10:7c:de:36:8c:0f:ec:6e:4f:
                    f2:3c:17:93:3b:03:3f:93:bc:da:fb:2c:af:f6:bb:
                    9c:8b:09:f4:1b:dc:e9:90:d8:08:4c:f2:d6:f3:a7:
                    2d:7d:c6:a9:b6:d4:9e:fb:7f:24:ba:9d:05:e5:00:
                    59:3f
                Exponent: 65537 (0x10001)
        X509v3 extensions:
            X509v3 Basic Constraints: 
                CA:FALSE
            X509v3 Subject Alternative Name: 
                IP Address:10.90.38.8, DNS:iccluster032.iccluster.epfl.ch
            X509v3 Subject Key Identifier: 
                F8:77:21:47:4D:14:C6:7E:25:E9:00:39:68:75:B8:96:F0:24:AF:09
    Signature Algorithm: sha256WithRSAEncryption
         d3:f8:67:84:21:e7:05:ed:71:79:98:78:15:f4:19:8e:85:33:
         b6:7c:04:c7:eb:b1:bb:ea:f0:bd:36:cf:9d:7e:86:c7:b5:46:
         b4:ca:a9:29:54:65:38:75:8b:88:7b:8d:1d:bf:8d:3b:29:f7:
         85:01:3f:cc:b8:08:da:40:55:07:c1:b2:6d:4b:9a:85:87:62:
         2f:66:f6:33:f4:5b:38:9d:b8:9b:02:f2:10:05:f0:2d:b4:0d:
         fc:f8:40:49:4b:da:e6:7b:a0:27:bf:fb:58:e1:a6:64:4f:ae:
         bc:99:3e:3c:94:4c:9e:4f:aa:cd:21:1f:69:3f:99:8c:71:6d:
         7d:f1:ea:b2:9b:ef:9a:f7:20:8d:50:b6:16:e1:ef:14:55:9b:
         57:ce:27:fe:44:1c:a5:c3:ec:95:f0:f9:b6:e5:57:e7:7b:db:
         0c:34:1d:36:55:d0:05:eb:31:e6:34:b2:7c:a0:4a:c3:66:31:
         ce:40:6b:dd:c2:fd:00:9a:46:26:ec:da:9c:ba:3e:5b:d9:3a:
         f0:19:84:03:8f:43:cb:67:9a:4a:9f:40:04:ab:1d:ed:be:3c:
         d9:ad:b5:f3:d3:1f:72:ca:12:eb:b6:ce:de:e8:7b:79:63:a9:
         fa:bc:de:98:ee:60:87:ce:50:e9:98:be:19:de:56:ef:87:12:
         6f:9e:bb:66
-----BEGIN CERTIFICATE-----
MIIDojCCAoqgAwIBAgIJAOSAN8/tTe2PMA0GCSqGSIb3DQEBCwUAME4xCzAJBgNV
BAYTAlZEMREwDwYDVQQIDAhMYXVzYW5uZTENMAsGA1UECgwERVBGTDENMAsGA1UE
CwwETENBMTEOMAwGA1UEAwwFTWVkQ28wHhcNMTgwNjI5MTEzNzI3WhcNMTkwNjI5
MTEzNzI3WjB0MQswCQYDVQQGEwJDSDELMAkGA1UECBMCVkQxETAPBgNVBAcTCExh
dXNhbm5lMQ0wCwYDVQQKEwRFUEZMMQ0wCwYDVQQLEwRMQ0ExMScwJQYDVQQDEx5p
Y2NsdXN0ZXIwMzIuaWNjbHVzdGVyLmVwZmwuY2gwggEiMA0GCSqGSIb3DQEBAQUA
A4IBDwAwggEKAoIBAQCJ6zba0fF0OQ91vpuo/gyQET8vRUdp82WjCCQBzQIzrhL6
Bn76uYqBKax4gx7ID42xjW33klHmUrHaoGwfvpJWeRa0BpX57OhkCoMbVBdsjrXz
Gk6Fu+69b4wOCOCtzZeoJ015AKGJRgqfAFSVHzCLYiaptpRb9RHFhq8qvI0MM7cf
cD4nr0BmxM3SyoQE80MwpMJGDJHZy+j6Da7RbCZ4awDuvdJMf90RlUPzCAS95b7w
+eC8Kc1UcftYjQu58KvS5Ef2txqbJBB83jaMD+xuT/I8F5M7Az+TvNr7LK/2u5yL
CfQb3OmQ2AhM8tbzpy19xqm21J77fyS6nQXlAFk/AgMBAAGjXTBbMAkGA1UdEwQC
MAAwLwYDVR0RBCgwJocEClomCIIeaWNjbHVzdGVyMDMyLmljY2x1c3Rlci5lcGZs
LmNoMB0GA1UdDgQWBBT4dyFHTRTGfiXpADlodbiW8CSvCTANBgkqhkiG9w0BAQsF
AAOCAQEA0/hnhCHnBe1xeZh4FfQZjoUztnwEx+uxu+rwvTbPnX6Gx7VGtMqpKVRl
OHWLiHuNHb+NOyn3hQE/zLgI2kBVB8GybUuahYdiL2b2M/RbOJ24mwLyEAXwLbQN
/PhASUva5nugJ7/7WOGmZE+uvJk+PJRMnk+qzSEfaT+ZjHFtffHqspvvmvcgjVC2
FuHvFFWbV84n/kQcpcPslfD5tuVX53vbDDQdNlXQBesx5jSyfKBKw2YxzkBr3cL9
AJpGJuzanLo+W9k68BmEA49Dy2eaSp9ABKsd7b482a2189MfcsoS67bO3uh7eWOp
+rzemO5gh85Q6Zi+Gd5W74cSb567Zg==
-----END CERTIFICATE-----
