Certificate:
    Data:
        Version: 3 (0x2)
        Serial Number: 16465221603845598609 (0xe48037cfed4ded91)
    Signature Algorithm: sha256WithRSAEncryption
        Issuer: C=VD, ST=Lausanne, O=EPFL, OU=LCA1, CN=MedCo
        Validity
            Not Before: Jun 29 11:37:40 2018 GMT
            Not After : Jun 29 11:37:40 2019 GMT
        Subject: C=CH, ST=VD, L=Lausanne, O=EPFL, OU=LCA1, CN=iccluster032.iccluster.epfl.ch
        Subject Public Key Info:
            Public Key Algorithm: rsaEncryption
                Public-Key: (2048 bit)
                Modulus:
                    00:85:0e:92:8d:42:13:eb:bf:a0:14:4d:b8:ae:48:
                    e2:23:8c:49:74:86:89:c8:3b:f5:1e:09:25:74:af:
                    b7:b8:99:ec:10:c8:8a:60:a3:72:cb:36:d1:e3:05:
                    a7:05:d0:37:4d:aa:fe:dd:03:b5:5c:57:75:92:42:
                    9b:ec:80:b6:de:e5:25:a0:af:98:95:01:e9:1c:ab:
                    50:f2:70:ab:1b:dc:f7:02:07:dc:29:f9:2e:c7:8d:
                    21:7e:cc:08:59:b8:77:26:eb:0b:f7:94:9f:4c:4d:
                    9d:bd:05:98:0d:1f:3d:08:f3:ad:1d:48:0b:08:30:
                    d0:fb:4b:29:c2:a8:50:e7:e3:2c:9e:f2:de:5b:5b:
                    2f:7a:c2:fb:59:76:78:29:9f:da:bc:55:d2:9c:e9:
                    1f:51:7e:75:2a:a7:2f:9a:6a:2b:fb:2c:b1:f2:9d:
                    b2:aa:3e:80:80:04:8c:51:13:be:e3:d4:dd:07:11:
                    cd:d2:49:8d:8f:f2:d2:df:91:aa:73:63:1a:cc:54:
                    5d:93:02:96:d1:58:33:de:72:2a:22:96:1b:82:97:
                    b5:9c:c1:7f:ca:7e:e2:d0:6c:9b:cc:a2:da:ea:aa:
                    25:17:71:2e:a6:27:60:b3:2a:65:34:65:2e:ce:4f:
                    b6:2d:c3:9e:10:c1:81:28:0e:4e:4a:33:7f:f7:d3:
                    70:8f
                Exponent: 65537 (0x10001)
        X509v3 extensions:
            X509v3 Basic Constraints: 
                CA:FALSE
            X509v3 Subject Alternative Name: 
                IP Address:10.90.38.11, DNS:iccluster032.iccluster.epfl.ch
            X509v3 Subject Key Identifier: 
                0A:60:A3:2C:CF:DF:AD:EE:BD:C2:34:0B:0D:B7:11:AF:C5:F3:44:82
    Signature Algorithm: sha256WithRSAEncryption
         d8:44:35:89:32:92:ef:0c:03:7c:4e:ef:6b:6e:e7:7a:54:96:
         c1:e5:7f:a2:93:d9:2c:35:3d:f8:80:bf:63:f2:cf:4c:f0:9f:
         9a:d2:a0:dc:98:a2:c3:09:16:15:53:16:7d:85:9c:17:6b:80:
         43:36:b7:4e:40:5d:06:e5:10:9a:48:d5:58:b7:60:a3:49:b3:
         57:3f:d4:d2:a8:05:45:4a:14:4a:95:3c:96:aa:32:09:b5:01:
         33:ab:99:b4:df:d5:38:d1:53:c0:6e:e0:c3:c2:34:5d:39:fe:
         43:9a:84:b1:cc:09:ee:bc:93:ed:5a:3b:30:3a:b5:5c:ae:92:
         b6:0c:c0:74:89:14:4f:20:da:9b:8b:39:ac:b7:09:44:86:50:
         98:a0:43:5e:dc:ea:fa:78:d4:65:a6:bb:3e:a6:8d:6f:e4:6d:
         af:3f:5e:2b:55:27:cc:b8:77:0f:8c:0a:bf:3a:7c:5d:c4:fa:
         83:ff:8a:c6:de:d6:96:23:09:e8:7b:0b:18:16:a0:e8:24:14:
         51:b2:e8:83:76:bd:c8:70:08:a6:cd:21:12:fc:8e:b9:c7:f0:
         56:54:dc:4b:d7:89:b8:8d:b9:59:82:98:85:e8:63:b5:05:70:
         9d:08:a1:ee:d5:ad:4e:55:54:38:75:e9:08:af:50:d9:6d:df:
         23:4b:5a:a3
-----BEGIN CERTIFICATE-----
MIIDojCCAoqgAwIBAgIJAOSAN8/tTe2RMA0GCSqGSIb3DQEBCwUAME4xCzAJBgNV
BAYTAlZEMREwDwYDVQQIDAhMYXVzYW5uZTENMAsGA1UECgwERVBGTDENMAsGA1UE
CwwETENBMTEOMAwGA1UEAwwFTWVkQ28wHhcNMTgwNjI5MTEzNzQwWhcNMTkwNjI5
MTEzNzQwWjB0MQswCQYDVQQGEwJDSDELMAkGA1UECBMCVkQxETAPBgNVBAcTCExh
dXNhbm5lMQ0wCwYDVQQKEwRFUEZMMQ0wCwYDVQQLEwRMQ0ExMScwJQYDVQQDEx5p
Y2NsdXN0ZXIwMzIuaWNjbHVzdGVyLmVwZmwuY2gwggEiMA0GCSqGSIb3DQEBAQUA
A4IBDwAwggEKAoIBAQCFDpKNQhPrv6AUTbiuSOIjjEl0honIO/UeCSV0r7e4mewQ
yIpgo3LLNtHjBacF0DdNqv7dA7VcV3WSQpvsgLbe5SWgr5iVAekcq1DycKsb3PcC
B9wp+S7HjSF+zAhZuHcm6wv3lJ9MTZ29BZgNHz0I860dSAsIMND7SynCqFDn4yye
8t5bWy96wvtZdngpn9q8VdKc6R9RfnUqpy+aaiv7LLHynbKqPoCABIxRE77j1N0H
Ec3SSY2P8tLfkapzYxrMVF2TApbRWDPecioilhuCl7WcwX/KfuLQbJvMotrqqiUX
cS6mJ2CzKmU0ZS7OT7Ytw54QwYEoDk5KM3/303CPAgMBAAGjXTBbMAkGA1UdEwQC
MAAwLwYDVR0RBCgwJocEClomC4IeaWNjbHVzdGVyMDMyLmljY2x1c3Rlci5lcGZs
LmNoMB0GA1UdDgQWBBQKYKMsz9+t7r3CNAsNtxGvxfNEgjANBgkqhkiG9w0BAQsF
AAOCAQEA2EQ1iTKS7wwDfE7va27nelSWweV/opPZLDU9+IC/Y/LPTPCfmtKg3Jii
wwkWFVMWfYWcF2uAQza3TkBdBuUQmkjVWLdgo0mzVz/U0qgFRUoUSpU8lqoyCbUB
M6uZtN/VONFTwG7gw8I0XTn+Q5qEscwJ7ryT7Vo7MDq1XK6StgzAdIkUTyDam4s5
rLcJRIZQmKBDXtzq+njUZaa7PqaNb+Rtrz9eK1UnzLh3D4wKvzp8XcT6g/+Kxt7W
liMJ6HsLGBag6CQUUbLog3a9yHAIps0hEvyOucfwVlTcS9eJuI25WYKYhehjtQVw
nQih7tWtTlVUOHXpCK9Q2W3fI0taow==
-----END CERTIFICATE-----
