Certificate:
    Data:
        Version: 3 (0x2)
        Serial Number: 16465221603845598608 (0xe48037cfed4ded90)
    Signature Algorithm: sha256WithRSAEncryption
        Issuer: C=VD, ST=Lausanne, O=EPFL, OU=LCA1, CN=MedCo
        Validity
            Not Before: Jun 29 11:37:33 2018 GMT
            Not After : Jun 29 11:37:33 2019 GMT
        Subject: C=CH, ST=VD, L=Lausanne, O=EPFL, OU=LCA1, CN=iccluster034.iccluster.epfl.ch
        Subject Public Key Info:
            Public Key Algorithm: rsaEncryption
                Public-Key: (2048 bit)
                Modulus:
                    00:a6:8c:8b:8a:28:d7:5a:e0:2d:8f:e0:d4:f7:c1:
                    e5:95:b6:4d:e8:53:5c:1e:2d:aa:86:5b:6e:64:bc:
                    3a:d7:da:c4:ca:41:c0:fc:68:35:5c:8e:10:d4:34:
                    eb:86:cf:94:f1:1b:d1:02:54:76:39:69:29:5e:b7:
                    4a:86:2c:43:c2:56:f0:db:61:2b:5b:2b:81:70:e5:
                    9e:ce:fd:18:70:90:05:4c:37:24:2b:b7:2e:fe:11:
                    1e:0f:d2:a7:85:63:25:95:88:f7:94:e4:f0:07:25:
                    be:56:c3:a8:2f:11:55:63:10:41:be:e6:ab:64:03:
                    41:3b:a7:9d:93:bc:af:d8:c1:44:57:0a:95:1b:fe:
                    d0:36:e7:ae:5f:21:ee:05:f9:18:5b:d8:26:bb:5d:
                    8a:a0:b9:04:27:8b:95:27:85:88:18:9f:21:a5:1e:
                    dc:06:93:06:b2:9a:0e:88:90:c9:47:3c:87:35:00:
                    73:e0:91:d1:3f:9c:30:89:38:d1:d0:8c:a8:b8:19:
                    87:7e:8a:b1:9d:00:36:7d:6a:a3:19:11:88:ea:2f:
                    e6:56:85:28:e9:e2:2b:5f:4f:05:f9:0d:3b:de:d3:
                    f3:2a:4e:75:04:97:2e:92:22:ed:2d:06:02:c7:97:
                    11:af:3c:9e:91:ce:26:3e:77:d9:0b:98:25:65:3e:
                    0c:21
                Exponent: 65537 (0x10001)
        X509v3 extensions:
            X509v3 Basic Constraints: 
                CA:FALSE
            X509v3 Subject Alternative Name: 
                IP Address:10.90.38.10, DNS:iccluster034.iccluster.epfl.ch
            X509v3 Subject Key Identifier: 
                A8:03:66:06:51:86:A1:C0:D5:07:65:92:42:19:18:32:E9:E1:73:22
    Signature Algorithm: sha256WithRSAEncryption
         00:c6:67:db:53:2e:78:70:38:f5:74:2f:d8:56:15:5b:88:53:
         1c:16:78:aa:a2:21:87:88:6a:af:fb:98:fd:9c:6d:56:99:58:
         7a:dd:37:bf:21:f6:5d:b7:de:c9:df:dc:9e:4f:4a:44:f2:78:
         98:03:44:98:ae:5f:06:fa:70:ea:0f:7a:d7:1f:5d:73:41:19:
         0e:ac:52:e1:05:4a:65:7b:a6:71:a2:74:7a:4e:11:df:ed:9d:
         a8:a5:4a:41:59:93:60:12:b7:2a:dc:d6:e9:ce:bc:c7:6b:0c:
         b8:d9:2b:ef:59:6d:12:98:02:58:52:0f:4b:a8:92:e1:e7:5a:
         29:aa:07:5b:78:e1:d8:5a:95:ba:f4:c7:c9:d1:25:03:55:6f:
         bb:71:8f:d8:49:66:f0:30:5f:2d:57:c2:b5:66:6c:00:ad:92:
         8a:2f:d9:36:44:d3:af:d7:bc:fb:ea:54:69:89:02:9c:f9:69:
         e5:c6:2c:5d:46:5e:7d:ea:85:5f:37:b0:8c:61:00:84:f3:75:
         b1:05:a2:fa:0a:db:2c:7f:69:fe:d0:89:2d:4f:84:25:05:c5:
         37:40:7c:06:e5:60:e8:23:ad:f5:7a:a7:99:2f:28:2b:ee:75:
         c3:1b:96:89:0c:e8:57:da:2d:d7:78:c1:ee:13:bc:35:cc:7f:
         0b:07:83:29
-----BEGIN CERTIFICATE-----
MIIDojCCAoqgAwIBAgIJAOSAN8/tTe2QMA0GCSqGSIb3DQEBCwUAME4xCzAJBgNV
BAYTAlZEMREwDwYDVQQIDAhMYXVzYW5uZTENMAsGA1UECgwERVBGTDENMAsGA1UE
CwwETENBMTEOMAwGA1UEAwwFTWVkQ28wHhcNMTgwNjI5MTEzNzMzWhcNMTkwNjI5
MTEzNzMzWjB0MQswCQYDVQQGEwJDSDELMAkGA1UECBMCVkQxETAPBgNVBAcTCExh
dXNhbm5lMQ0wCwYDVQQKEwRFUEZMMQ0wCwYDVQQLEwRMQ0ExMScwJQYDVQQDEx5p
Y2NsdXN0ZXIwMzQuaWNjbHVzdGVyLmVwZmwuY2gwggEiMA0GCSqGSIb3DQEBAQUA
A4IBDwAwggEKAoIBAQCmjIuKKNda4C2P4NT3weWVtk3oU1weLaqGW25kvDrX2sTK
QcD8aDVcjhDUNOuGz5TxG9ECVHY5aSlet0qGLEPCVvDbYStbK4Fw5Z7O/RhwkAVM
NyQrty7+ER4P0qeFYyWViPeU5PAHJb5Ww6gvEVVjEEG+5qtkA0E7p52TvK/YwURX
CpUb/tA2565fIe4F+Rhb2Ca7XYqguQQni5UnhYgYnyGlHtwGkwaymg6IkMlHPIc1
AHPgkdE/nDCJONHQjKi4GYd+irGdADZ9aqMZEYjqL+ZWhSjp4itfTwX5DTve0/Mq
TnUEly6SIu0tBgLHlxGvPJ6RziY+d9kLmCVlPgwhAgMBAAGjXTBbMAkGA1UdEwQC
MAAwLwYDVR0RBCgwJocEClomCoIeaWNjbHVzdGVyMDM0LmljY2x1c3Rlci5lcGZs
LmNoMB0GA1UdDgQWBBSoA2YGUYahwNUHZZJCGRgy6eFzIjANBgkqhkiG9w0BAQsF
AAOCAQEAAMZn21MueHA49XQv2FYVW4hTHBZ4qqIhh4hqr/uY/ZxtVplYet03vyH2
Xbfeyd/cnk9KRPJ4mANEmK5fBvpw6g961x9dc0EZDqxS4QVKZXumcaJ0ek4R3+2d
qKVKQVmTYBK3KtzW6c68x2sMuNkr71ltEpgCWFIPS6iS4edaKaoHW3jh2FqVuvTH
ydElA1Vvu3GP2Elm8DBfLVfCtWZsAK2Sii/ZNkTTr9e8++pUaYkCnPlp5cYsXUZe
feqFXzewjGEAhPN1sQWi+grbLH9p/tCJLU+EJQXFN0B8BuVg6COt9XqnmS8oK+51
wxuWiQzoV9ot13jB7hO8Ncx/CweDKQ==
-----END CERTIFICATE-----
