Certificate:
    Data:
        Version: 3 (0x2)
        Serial Number: 14457037324735059288 (0xc8a1b6d9a5659558)
    Signature Algorithm: sha256WithRSAEncryption
        Issuer: C=xx, ST=x, O=x, OU=x, CN=x
        Validity
            Not Before: Apr 28 13:43:44 2018 GMT
            Not After : Apr 28 13:43:44 2019 GMT
        Subject: C=CH, ST=VD, L=Lausanne, O=EPFL, OU=LCA1, CN=iccluster097.iccluster.epfl.ch
        Subject Public Key Info:
            Public Key Algorithm: rsaEncryption
                Public-Key: (2048 bit)
                Modulus:
                    00:a1:bd:31:9e:64:72:5e:63:91:ed:30:ad:6a:b7:
                    65:0c:07:67:60:46:9e:11:43:45:a6:c3:0a:82:d3:
                    da:07:bd:7a:a4:8b:e8:88:47:47:fc:c7:6c:69:cb:
                    c7:79:3a:3d:a3:01:53:34:1b:17:4a:95:50:9f:cb:
                    72:2e:10:a1:b1:6e:e1:c0:a2:c1:32:c3:ad:78:df:
                    d2:1f:57:a9:3f:be:ac:66:67:48:f9:41:8a:ad:a3:
                    82:d4:19:45:28:45:b5:e8:71:88:49:b4:e9:40:b9:
                    6a:48:84:b3:37:81:e4:f4:68:52:23:97:4f:b9:88:
                    12:ee:43:d8:71:5a:da:0f:98:72:0d:52:64:3a:17:
                    f6:cf:f5:65:fe:32:25:6c:1a:ba:31:84:15:0a:bb:
                    d6:55:6e:2f:c5:2f:99:d4:e5:9f:ea:18:83:df:0e:
                    dc:fa:9a:98:1c:16:30:53:4f:8b:86:ca:7a:bc:96:
                    78:7e:c8:42:1f:34:84:ce:7b:7a:7c:7e:b2:c6:50:
                    fc:7c:7b:f2:3f:81:0f:51:76:83:ce:08:e4:2f:05:
                    eb:79:6d:5f:72:03:be:33:1f:45:f3:d5:15:18:05:
                    1a:76:fa:5d:a9:81:e4:a0:ab:27:2e:25:92:de:64:
                    5a:80:e2:64:85:7f:1c:ad:d0:f0:38:1c:e4:35:4e:
                    ad:f7
                Exponent: 65537 (0x10001)
        X509v3 extensions:
            X509v3 Basic Constraints: 
                CA:FALSE
            X509v3 Subject Alternative Name: 
                IP Address:10.90.40.23, DNS:iccluster097.iccluster.epfl.ch
            X509v3 Subject Key Identifier: 
                DE:7F:8B:5F:F3:77:27:32:D2:DF:4F:85:0E:DE:39:FE:90:7F:C2:E0
    Signature Algorithm: sha256WithRSAEncryption
         1a:4f:27:df:84:01:76:5e:c8:40:99:60:82:5f:f7:a1:bd:7b:
         c3:19:36:2f:68:e5:bd:16:00:cb:b8:15:c4:96:3f:24:65:de:
         46:61:dd:7e:2b:0d:34:eb:5a:ff:9e:16:60:bf:2d:91:5d:21:
         7c:3e:26:3c:2b:11:a0:eb:be:d0:ee:8c:8d:a5:38:f9:f6:2f:
         b7:a1:29:85:8c:63:42:43:78:43:82:f9:47:e4:32:3c:bd:76:
         21:1f:67:a5:7b:0b:be:4b:8b:1b:c6:d0:fc:f9:2e:38:df:d0:
         ac:9a:04:cc:58:82:f9:54:ce:b3:51:d8:01:5d:64:a5:a0:81:
         91:9e:16:50:0d:6d:6c:57:1e:fe:f3:92:a5:2c:a5:c5:18:b6:
         b0:d8:ef:82:65:b3:0e:8f:d1:e2:48:6f:37:b2:82:28:92:4e:
         52:ac:ff:68:0c:e8:3b:50:fc:aa:70:80:e4:14:0f:f8:b9:cf:
         c7:01:cb:7b:45:d4:1f:c5:4f:57:bd:ae:14:00:f9:4c:ea:8f:
         27:b0:5a:61:db:ff:13:af:48:2b:7c:e9:fd:c8:02:38:72:66:
         34:76:52:21:cf:61:e4:87:61:e5:1e:83:3e:ff:5c:4c:b0:ca:
         10:e0:2e:96:15:31:82:9b:d3:90:94:13:c2:6f:7b:8b:47:1f:
         39:cf:64:0a
-----BEGIN CERTIFICATE-----
MIIDkTCCAnmgAwIBAgIJAMihttmlZZVYMA0GCSqGSIb3DQEBCwUAMD0xCzAJBgNV
BAYTAnh4MQowCAYDVQQIDAF4MQowCAYDVQQKDAF4MQowCAYDVQQLDAF4MQowCAYD
VQQDDAF4MB4XDTE4MDQyODEzNDM0NFoXDTE5MDQyODEzNDM0NFowdDELMAkGA1UE
BhMCQ0gxCzAJBgNVBAgTAlZEMREwDwYDVQQHEwhMYXVzYW5uZTENMAsGA1UEChME
RVBGTDENMAsGA1UECxMETENBMTEnMCUGA1UEAxMeaWNjbHVzdGVyMDk3LmljY2x1
c3Rlci5lcGZsLmNoMIIBIjANBgkqhkiG9w0BAQEFAAOCAQ8AMIIBCgKCAQEAob0x
nmRyXmOR7TCtardlDAdnYEaeEUNFpsMKgtPaB716pIvoiEdH/MdsacvHeTo9owFT
NBsXSpVQn8tyLhChsW7hwKLBMsOteN/SH1epP76sZmdI+UGKraOC1BlFKEW16HGI
SbTpQLlqSISzN4Hk9GhSI5dPuYgS7kPYcVraD5hyDVJkOhf2z/Vl/jIlbBq6MYQV
CrvWVW4vxS+Z1OWf6hiD3w7c+pqYHBYwU0+Lhsp6vJZ4fshCHzSEznt6fH6yxlD8
fHvyP4EPUXaDzgjkLwXreW1fcgO+Mx9F89UVGAUadvpdqYHkoKsnLiWS3mRagOJk
hX8crdDwOBzkNU6t9wIDAQABo10wWzAJBgNVHRMEAjAAMC8GA1UdEQQoMCaHBApa
KBeCHmljY2x1c3RlcjA5Ny5pY2NsdXN0ZXIuZXBmbC5jaDAdBgNVHQ4EFgQU3n+L
X/N3JzLS30+FDt45/pB/wuAwDQYJKoZIhvcNAQELBQADggEBABpPJ9+EAXZeyECZ
YIJf96G9e8MZNi9o5b0WAMu4FcSWPyRl3kZh3X4rDTTrWv+eFmC/LZFdIXw+Jjwr
EaDrvtDujI2lOPn2L7ehKYWMY0JDeEOC+UfkMjy9diEfZ6V7C75LixvG0Pz5Ljjf
0KyaBMxYgvlUzrNR2AFdZKWggZGeFlANbWxXHv7zkqUspcUYtrDY74Jlsw6P0eJI
bzeygiiSTlKs/2gM6DtQ/KpwgOQUD/i5z8cBy3tF1B/FT1e9rhQA+UzqjyewWmHb
/xOvSCt86f3IAjhyZjR2UiHPYeSHYeUegz7/XEywyhDgLpYVMYKb05CUE8Jve4tH
HznPZAo=
-----END CERTIFICATE-----
