Certificate:
    Data:
        Version: 3 (0x2)
        Serial Number: 14457037324735059293 (0xc8a1b6d9a565955d)
    Signature Algorithm: sha256WithRSAEncryption
        Issuer: C=xx, ST=x, O=x, OU=x, CN=x
        Validity
            Not Before: Apr 28 13:44:16 2018 GMT
            Not After : Apr 28 13:44:16 2019 GMT
        Subject: C=CH, ST=VD, L=Lausanne, O=EPFL, OU=LCA1, CN=iccluster096.iccluster.epfl.ch
        Subject Public Key Info:
            Public Key Algorithm: rsaEncryption
                Public-Key: (2048 bit)
                Modulus:
                    00:f0:0f:12:82:eb:80:0d:3b:32:48:d6:e1:d0:91:
                    aa:34:cb:14:39:12:38:5d:26:c8:0b:a7:e7:af:19:
                    9a:e9:d2:1c:2b:50:60:1d:2a:ad:6a:14:ae:71:9e:
                    68:98:01:2c:04:7c:4e:3d:17:88:d6:4d:eb:85:0e:
                    5c:f7:dc:3e:d1:7d:f3:1c:4e:64:65:21:2b:48:4d:
                    f2:df:2c:79:a8:9f:d7:c5:39:6b:54:69:47:f2:dc:
                    2a:dd:b2:fc:8f:6e:ad:2c:84:4c:a4:53:3b:8c:35:
                    7e:33:82:4f:17:0a:0a:a3:5e:69:9c:b0:7a:f8:56:
                    6f:20:29:0c:02:94:d1:f7:2b:23:38:fd:8e:eb:46:
                    63:aa:94:e2:27:d4:2d:79:c1:d6:26:e4:70:2f:8f:
                    95:e0:a0:3a:f2:b4:7a:dd:00:d0:2a:e5:3d:59:c9:
                    71:b6:f4:2d:c2:b9:53:da:f3:9d:b5:d6:f0:7f:70:
                    e8:33:4e:9a:12:14:36:f6:9f:c4:46:f4:35:08:51:
                    3d:33:8e:5a:a3:17:15:f1:07:1e:30:7d:a6:04:86:
                    60:0e:f6:3d:04:a5:12:47:68:95:ad:85:98:5a:81:
                    5a:d1:8c:73:36:fa:8d:23:c4:2e:90:4b:23:29:0a:
                    1d:98:62:9a:31:86:2c:c3:9f:c4:fd:0a:66:72:7b:
                    bb:a5
                Exponent: 65537 (0x10001)
        X509v3 extensions:
            X509v3 Basic Constraints: 
                CA:FALSE
            X509v3 Subject Alternative Name: 
                IP Address:10.90.40.22, DNS:iccluster096.iccluster.epfl.ch
            X509v3 Subject Key Identifier: 
                39:1A:61:B5:C1:D0:85:C8:74:81:EB:85:03:A4:D5:86:CD:4B:4A:65
    Signature Algorithm: sha256WithRSAEncryption
         cd:71:9b:18:e0:8a:43:09:8d:90:d0:e2:14:87:a2:e8:31:20:
         36:2a:be:ce:0b:a4:69:a6:dd:8f:5d:06:63:4f:e0:e8:bc:f3:
         45:3a:19:f8:d0:ee:7a:47:3a:24:44:6f:52:68:68:eb:c3:17:
         87:d7:14:47:ba:b2:f1:6a:d3:4e:06:07:a7:cb:00:c2:14:bc:
         13:ce:6c:99:a7:f5:f5:93:09:bd:4f:41:2f:ad:0a:90:37:d4:
         75:2b:05:ab:b6:9d:60:d0:fb:7c:a1:65:ce:2c:b8:d3:36:31:
         01:b3:01:22:98:5e:b5:0d:aa:dd:2e:a4:41:25:07:df:e5:98:
         ab:a8:17:7d:f1:48:b1:5c:ff:cf:17:ac:3e:ae:52:2a:ef:47:
         96:ba:74:0f:6b:1e:ad:7d:93:49:6c:18:4a:a1:63:12:3a:d0:
         b6:cf:c4:56:4e:eb:92:43:f1:4a:78:43:06:d1:a8:75:66:54:
         00:e8:80:e4:f2:42:90:1d:f8:d9:07:bf:c3:0f:af:81:1b:2f:
         7a:2b:97:63:f8:4d:b2:d6:91:09:1b:39:6e:f1:09:23:8e:9d:
         14:76:21:06:84:3c:74:fb:fb:78:93:96:18:79:65:db:97:ec:
         73:8d:cd:b3:1d:17:6e:06:22:99:4e:cf:01:58:fd:1a:a8:3c:
         54:9f:85:92
-----BEGIN CERTIFICATE-----
MIIDkTCCAnmgAwIBAgIJAMihttmlZZVdMA0GCSqGSIb3DQEBCwUAMD0xCzAJBgNV
BAYTAnh4MQowCAYDVQQIDAF4MQowCAYDVQQKDAF4MQowCAYDVQQLDAF4MQowCAYD
VQQDDAF4MB4XDTE4MDQyODEzNDQxNloXDTE5MDQyODEzNDQxNlowdDELMAkGA1UE
BhMCQ0gxCzAJBgNVBAgTAlZEMREwDwYDVQQHEwhMYXVzYW5uZTENMAsGA1UEChME
RVBGTDENMAsGA1UECxMETENBMTEnMCUGA1UEAxMeaWNjbHVzdGVyMDk2LmljY2x1
c3Rlci5lcGZsLmNoMIIBIjANBgkqhkiG9w0BAQEFAAOCAQ8AMIIBCgKCAQEA8A8S
guuADTsySNbh0JGqNMsUORI4XSbIC6fnrxma6dIcK1BgHSqtahSucZ5omAEsBHxO
PReI1k3rhQ5c99w+0X3zHE5kZSErSE3y3yx5qJ/XxTlrVGlH8twq3bL8j26tLIRM
pFM7jDV+M4JPFwoKo15pnLB6+FZvICkMApTR9ysjOP2O60ZjqpTiJ9QtecHWJuRw
L4+V4KA68rR63QDQKuU9WclxtvQtwrlT2vOdtdbwf3DoM06aEhQ29p/ERvQ1CFE9
M45aoxcV8QceMH2mBIZgDvY9BKUSR2iVrYWYWoFa0YxzNvqNI8QukEsjKQodmGKa
MYYsw5/E/Qpmcnu7pQIDAQABo10wWzAJBgNVHRMEAjAAMC8GA1UdEQQoMCaHBApa
KBaCHmljY2x1c3RlcjA5Ni5pY2NsdXN0ZXIuZXBmbC5jaDAdBgNVHQ4EFgQUORph
tcHQhch0geuFA6TVhs1LSmUwDQYJKoZIhvcNAQELBQADggEBAM1xmxjgikMJjZDQ
4hSHougxIDYqvs4LpGmm3Y9dBmNP4Oi880U6GfjQ7npHOiREb1JoaOvDF4fXFEe6
svFq004GB6fLAMIUvBPObJmn9fWTCb1PQS+tCpA31HUrBau2nWDQ+3yhZc4suNM2
MQGzASKYXrUNqt0upEElB9/lmKuoF33xSLFc/88XrD6uUirvR5a6dA9rHq19k0ls
GEqhYxI60LbPxFZO65JD8Up4QwbRqHVmVADogOTyQpAd+NkHv8MPr4EbL3orl2P4
TbLWkQkbOW7xCSOOnRR2IQaEPHT7+3iTlhh5ZduX7HONzbMdF24GIplOzwFY/Rqo
PFSfhZI=
-----END CERTIFICATE-----
