Certificate:
    Data:
        Version: 3 (0x2)
        Serial Number: 14457037324735059287 (0xc8a1b6d9a5659557)
    Signature Algorithm: sha256WithRSAEncryption
        Issuer: C=xx, ST=x, O=x, OU=x, CN=x
        Validity
            Not Before: Apr 28 13:43:37 2018 GMT
            Not After : Apr 28 13:43:37 2019 GMT
        Subject: C=CH, ST=VD, L=Lausanne, O=EPFL, OU=LCA1, CN=iccluster096.iccluster.epfl.ch
        Subject Public Key Info:
            Public Key Algorithm: rsaEncryption
                Public-Key: (2048 bit)
                Modulus:
                    00:a8:d3:7d:5e:b1:ee:7c:d8:e6:49:46:d3:77:f3:
                    4c:b8:2f:e7:b3:f1:c6:ab:ad:fa:32:14:44:dc:2f:
                    4d:35:c7:b6:a2:84:ca:d0:d0:11:ba:2d:fb:0c:20:
                    ab:bf:b6:29:3d:5d:fb:3d:d2:7f:1b:1e:5b:35:71:
                    f8:ee:91:79:27:c4:be:0a:1e:b9:24:6a:2b:8d:9d:
                    00:a7:54:75:e6:5a:fc:ad:36:5e:cd:76:12:5c:08:
                    b7:c0:32:61:dc:ed:65:47:e4:7b:7b:1b:aa:f3:d6:
                    1a:c7:64:c2:e9:56:cc:6b:67:b1:e5:92:54:3a:4d:
                    45:36:71:db:eb:69:03:23:44:be:44:9c:fc:ed:ab:
                    9e:41:99:ad:c7:50:5c:cb:aa:62:56:4d:04:67:f5:
                    1a:7a:73:44:b2:71:70:4a:e8:06:db:dc:8d:b6:f5:
                    75:35:6b:d0:cd:49:70:ab:21:9f:54:63:15:8c:30:
                    e6:65:b3:5c:e4:e6:15:5f:3e:6d:9e:8c:e2:69:04:
                    04:a1:dc:87:74:d0:5c:c6:2d:32:00:63:64:f1:88:
                    1f:5c:71:9f:36:c6:6d:fd:e9:2a:c3:02:13:a4:0c:
                    a2:87:60:ea:90:c5:5d:42:83:45:aa:a5:a6:9c:89:
                    b2:90:37:ff:d8:dc:0a:0b:58:85:89:8e:2d:85:10:
                    25:e5
                Exponent: 65537 (0x10001)
        X509v3 extensions:
            X509v3 Basic Constraints: 
                CA:FALSE
            X509v3 Subject Alternative Name: 
                IP Address:10.90.40.22, DNS:iccluster096.iccluster.epfl.ch
            X509v3 Subject Key Identifier: 
                B1:AD:9F:D2:B5:DA:61:D5:79:87:61:FB:95:9C:EA:4B:FC:42:00:D6
    Signature Algorithm: sha256WithRSAEncryption
         5b:af:aa:d1:91:02:8b:47:54:39:a4:02:1e:1f:7d:89:84:40:
         24:ab:af:e9:61:e2:58:c0:a0:e9:87:ae:8b:9e:0a:e9:0a:0b:
         d9:ae:42:7a:f6:23:87:3a:10:18:e1:bc:c3:5c:9e:d3:e7:e7:
         94:6e:fa:48:a2:c0:3e:4e:27:50:04:41:75:6d:76:05:0c:ad:
         70:2d:bd:de:3a:76:2d:9c:b9:1f:c7:75:c7:42:bb:ad:3b:41:
         bb:fe:df:a1:18:16:12:96:40:05:ca:69:f3:c4:c3:d0:af:d3:
         e8:5c:34:f0:cf:bb:9b:bf:7c:89:18:63:66:a3:cd:e1:62:67:
         14:13:f7:b8:8b:e5:c5:13:3e:01:6e:1d:7e:cf:22:c9:ec:64:
         7f:21:9c:65:74:d0:da:b0:58:e5:94:25:2f:f8:7c:dd:ff:76:
         f5:70:b9:7c:2c:fa:e7:95:a3:29:a4:4f:a0:4f:4e:c5:af:50:
         cf:bf:9f:3a:f4:94:cd:47:72:09:3d:57:c8:11:2c:d8:9b:be:
         2b:88:90:e6:bc:5a:36:44:30:b0:68:92:5b:2a:90:4f:11:be:
         38:4a:b1:45:31:66:a2:44:a3:03:e4:8a:00:8b:c0:f6:12:1c:
         b3:47:72:e3:cf:15:18:6a:b3:14:02:57:b1:2a:83:bc:c3:4c:
         56:21:b7:8f
-----BEGIN CERTIFICATE-----
MIIDkTCCAnmgAwIBAgIJAMihttmlZZVXMA0GCSqGSIb3DQEBCwUAMD0xCzAJBgNV
BAYTAnh4MQowCAYDVQQIDAF4MQowCAYDVQQKDAF4MQowCAYDVQQLDAF4MQowCAYD
VQQDDAF4MB4XDTE4MDQyODEzNDMzN1oXDTE5MDQyODEzNDMzN1owdDELMAkGA1UE
BhMCQ0gxCzAJBgNVBAgTAlZEMREwDwYDVQQHEwhMYXVzYW5uZTENMAsGA1UEChME
RVBGTDENMAsGA1UECxMETENBMTEnMCUGA1UEAxMeaWNjbHVzdGVyMDk2LmljY2x1
c3Rlci5lcGZsLmNoMIIBIjANBgkqhkiG9w0BAQEFAAOCAQ8AMIIBCgKCAQEAqNN9
XrHufNjmSUbTd/NMuC/ns/HGq636MhRE3C9NNce2ooTK0NARui37DCCrv7YpPV37
PdJ/Gx5bNXH47pF5J8S+Ch65JGorjZ0Ap1R15lr8rTZezXYSXAi3wDJh3O1lR+R7
exuq89Yax2TC6VbMa2ex5ZJUOk1FNnHb62kDI0S+RJz87aueQZmtx1Bcy6piVk0E
Z/UaenNEsnFwSugG29yNtvV1NWvQzUlwqyGfVGMVjDDmZbNc5OYVXz5tnoziaQQE
odyHdNBcxi0yAGNk8YgfXHGfNsZt/ekqwwITpAyih2DqkMVdQoNFqqWmnImykDf/
2NwKC1iFiY4thRAl5QIDAQABo10wWzAJBgNVHRMEAjAAMC8GA1UdEQQoMCaHBApa
KBaCHmljY2x1c3RlcjA5Ni5pY2NsdXN0ZXIuZXBmbC5jaDAdBgNVHQ4EFgQUsa2f
0rXaYdV5h2H7lZzqS/xCANYwDQYJKoZIhvcNAQELBQADggEBAFuvqtGRAotHVDmk
Ah4ffYmEQCSrr+lh4ljAoOmHroueCukKC9muQnr2I4c6EBjhvMNcntPn55Ru+kii
wD5OJ1AEQXVtdgUMrXAtvd46di2cuR/HdcdCu607Qbv+36EYFhKWQAXKafPEw9Cv
0+hcNPDPu5u/fIkYY2ajzeFiZxQT97iL5cUTPgFuHX7PIsnsZH8hnGV00NqwWOWU
JS/4fN3/dvVwuXws+ueVoymkT6BPTsWvUM+/nzr0lM1Hcgk9V8gRLNibviuIkOa8
WjZEMLBoklsqkE8RvjhKsUUxZqJEowPkigCLwPYSHLNHcuPPFRhqsxQCV7Eqg7zD
TFYht48=
-----END CERTIFICATE-----
