Certificate:
    Data:
        Version: 3 (0x2)
        Serial Number: 14457037324735059294 (0xc8a1b6d9a565955e)
    Signature Algorithm: sha256WithRSAEncryption
        Issuer: C=xx, ST=x, O=x, OU=x, CN=x
        Validity
            Not Before: Apr 28 13:44:21 2018 GMT
            Not After : Apr 28 13:44:21 2019 GMT
        Subject: C=CH, ST=VD, L=Lausanne, O=EPFL, OU=LCA1, CN=iccluster097.iccluster.epfl.ch
        Subject Public Key Info:
            Public Key Algorithm: rsaEncryption
                Public-Key: (2048 bit)
                Modulus:
                    00:b6:27:98:f7:40:fd:c1:4b:0e:d2:f4:45:af:5f:
                    1e:8e:98:80:ed:43:45:b6:2f:ff:19:8c:ab:e6:29:
                    9f:30:e5:51:b2:f2:92:e5:8c:dd:54:49:b7:cd:23:
                    d1:3f:e4:63:62:78:03:b6:55:da:3f:6b:c0:ff:22:
                    4c:91:a9:63:01:18:ec:08:79:85:fb:f4:ad:79:8e:
                    7b:26:b3:c1:ab:4c:67:b1:d7:25:09:cd:d4:a4:b4:
                    86:8f:6d:4b:78:e5:d5:3d:f8:12:ab:a5:5c:5d:7d:
                    7c:fa:83:7f:ff:1e:70:59:52:b7:7f:c5:8d:89:15:
                    7e:36:87:f8:f9:88:98:d2:cf:b5:e0:a9:ec:3c:9e:
                    f3:89:84:27:5e:45:51:de:10:ba:cd:b3:2b:8d:83:
                    bd:79:43:f3:85:d2:4c:e1:c2:40:ad:24:e1:5d:31:
                    c1:b4:0f:00:2d:7d:2a:91:ce:34:29:a3:f6:3a:f4:
                    bd:45:24:d5:ee:fd:a9:4a:e7:49:17:09:26:c1:8e:
                    80:64:c3:6d:9a:b2:e5:0b:68:df:cf:f3:80:15:44:
                    a7:d8:54:87:5c:6b:f6:89:85:ac:5d:9f:f4:9d:33:
                    6f:ee:2b:af:47:c1:60:98:74:73:f3:63:2a:4e:e9:
                    c2:d4:51:9a:41:a1:d7:1e:e2:1b:05:85:03:4a:b9:
                    c6:2b
                Exponent: 65537 (0x10001)
        X509v3 extensions:
            X509v3 Basic Constraints: 
                CA:FALSE
            X509v3 Subject Alternative Name: 
                IP Address:10.90.40.23, DNS:iccluster097.iccluster.epfl.ch
            X509v3 Subject Key Identifier: 
                4C:43:81:7D:BC:EC:FC:42:D3:33:1D:D6:CD:59:30:76:BE:43:8A:49
    Signature Algorithm: sha256WithRSAEncryption
         76:3f:f8:37:69:83:e2:8f:06:7e:9c:fb:6a:59:f7:32:44:ca:
         f8:7a:85:3a:eb:8d:56:0d:ee:74:9a:48:ea:98:07:ba:43:55:
         a1:48:d1:1a:42:94:e4:c1:dc:e0:7d:c0:5f:9b:25:39:38:b2:
         4c:95:db:e3:bf:5c:6f:81:1e:07:68:d7:e9:2e:f0:4f:a6:64:
         6f:cd:a2:3c:a9:91:3b:af:ef:9b:bd:fc:46:4a:03:ba:1e:a8:
         d3:ab:9d:56:19:d6:ae:79:63:a2:04:9d:6f:ce:2e:d6:c1:52:
         77:99:54:55:eb:10:5e:1a:5c:68:e8:a7:e2:0e:2f:ab:43:15:
         80:de:bb:85:5b:50:8f:a0:ef:cd:b4:b5:20:bd:4a:e3:23:14:
         f2:56:f0:ed:10:be:09:91:b6:68:93:58:be:7d:a5:e4:ca:19:
         c4:45:aa:5f:8f:33:15:e6:c6:02:75:64:bf:10:45:65:cc:1b:
         58:97:a7:08:65:79:b8:f8:6a:20:e5:c6:6f:b8:30:e2:38:8c:
         64:a2:1a:a9:91:b7:22:99:b8:12:e5:61:a9:0b:42:38:e5:2d:
         e3:7e:35:46:ac:f6:1e:6c:67:69:e3:81:56:cb:12:11:53:e4:
         fe:51:d4:ec:d7:ab:8f:24:92:35:b2:61:27:02:6b:4c:a1:30:
         cd:95:a1:aa
-----BEGIN CERTIFICATE-----
MIIDkTCCAnmgAwIBAgIJAMihttmlZZVeMA0GCSqGSIb3DQEBCwUAMD0xCzAJBgNV
BAYTAnh4MQowCAYDVQQIDAF4MQowCAYDVQQKDAF4MQowCAYDVQQLDAF4MQowCAYD
VQQDDAF4MB4XDTE4MDQyODEzNDQyMVoXDTE5MDQyODEzNDQyMVowdDELMAkGA1UE
BhMCQ0gxCzAJBgNVBAgTAlZEMREwDwYDVQQHEwhMYXVzYW5uZTENMAsGA1UEChME
RVBGTDENMAsGA1UECxMETENBMTEnMCUGA1UEAxMeaWNjbHVzdGVyMDk3LmljY2x1
c3Rlci5lcGZsLmNoMIIBIjANBgkqhkiG9w0BAQEFAAOCAQ8AMIIBCgKCAQEAtieY
90D9wUsO0vRFr18ejpiA7UNFti//GYyr5imfMOVRsvKS5YzdVEm3zSPRP+RjYngD
tlXaP2vA/yJMkaljARjsCHmF+/SteY57JrPBq0xnsdclCc3UpLSGj21LeOXVPfgS
q6VcXX18+oN//x5wWVK3f8WNiRV+Nof4+YiY0s+14KnsPJ7ziYQnXkVR3hC6zbMr
jYO9eUPzhdJM4cJArSThXTHBtA8ALX0qkc40KaP2OvS9RSTV7v2pSudJFwkmwY6A
ZMNtmrLlC2jfz/OAFUSn2FSHXGv2iYWsXZ/0nTNv7iuvR8FgmHRz82MqTunC1FGa
QaHXHuIbBYUDSrnGKwIDAQABo10wWzAJBgNVHRMEAjAAMC8GA1UdEQQoMCaHBApa
KBeCHmljY2x1c3RlcjA5Ny5pY2NsdXN0ZXIuZXBmbC5jaDAdBgNVHQ4EFgQUTEOB
fbzs/ELTMx3WzVkwdr5DikkwDQYJKoZIhvcNAQELBQADggEBAHY/+Ddpg+KPBn6c
+2pZ9zJEyvh6hTrrjVYN7nSaSOqYB7pDVaFI0RpClOTB3OB9wF+bJTk4skyV2+O/
XG+BHgdo1+ku8E+mZG/NojypkTuv75u9/EZKA7oeqNOrnVYZ1q55Y6IEnW/OLtbB
UneZVFXrEF4aXGjop+IOL6tDFYDeu4VbUI+g7820tSC9SuMjFPJW8O0QvgmRtmiT
WL59peTKGcRFql+PMxXmxgJ1ZL8QRWXMG1iXpwhlebj4aiDlxm+4MOI4jGSiGqmR
tyKZuBLlYakLQjjlLeN+NUas9h5sZ2njgVbLEhFT5P5R1OzXq48kkjWyYScCa0yh
MM2Voao=
-----END CERTIFICATE-----
