Certificate:
    Data:
        Version: 3 (0x2)
        Serial Number: 14457037324735059290 (0xc8a1b6d9a565955a)
    Signature Algorithm: sha256WithRSAEncryption
        Issuer: C=xx, ST=x, O=x, OU=x, CN=x
        Validity
            Not Before: Apr 28 13:43:57 2018 GMT
            Not After : Apr 28 13:43:57 2019 GMT
        Subject: C=CH, ST=VD, L=Lausanne, O=EPFL, OU=LCA1, CN=iccluster096.iccluster.epfl.ch
        Subject Public Key Info:
            Public Key Algorithm: rsaEncryption
                Public-Key: (2048 bit)
                Modulus:
                    00:c5:53:48:d4:1a:93:ba:10:f1:d4:79:fb:44:ce:
                    23:9b:78:3e:4d:64:1c:87:3a:59:27:48:43:e1:1a:
                    a0:3e:84:fc:67:84:94:fc:d4:d8:be:32:1f:eb:de:
                    ed:b6:79:a1:e6:90:a2:f2:42:3c:18:9d:4d:52:25:
                    0e:48:e6:da:93:5a:f9:00:4a:64:61:c8:96:ff:41:
                    d5:a7:37:fa:28:a0:0f:31:31:fb:88:7b:4c:27:f4:
                    d9:98:58:6e:af:d3:4b:71:a3:c6:77:6b:42:77:18:
                    0e:38:7d:b6:e4:9e:e4:2a:fc:36:7d:03:68:e8:56:
                    ce:9b:ea:27:03:14:cb:9b:94:c5:f6:bb:16:a1:f4:
                    c7:cc:07:3e:e8:b0:86:97:55:dd:8a:bc:e4:2a:b8:
                    9b:85:e6:d0:0e:af:29:cf:82:e5:a9:fc:51:03:9d:
                    71:d4:d6:f9:05:b4:fa:99:d0:35:6a:40:b8:93:99:
                    cf:01:08:8d:df:18:6b:48:6f:f8:a6:69:81:4b:e1:
                    d6:45:f3:50:a4:89:25:6b:37:e3:19:d5:64:c8:da:
                    45:0d:a1:39:f9:9b:ce:1b:dc:11:a8:de:bc:92:95:
                    d5:ce:d6:af:19:e6:02:fe:ee:4d:05:75:18:6d:e9:
                    29:15:ad:18:8a:8c:2c:b1:0e:73:21:1c:b8:06:14:
                    a7:c1
                Exponent: 65537 (0x10001)
        X509v3 extensions:
            X509v3 Basic Constraints: 
                CA:FALSE
            X509v3 Subject Alternative Name: 
                IP Address:10.90.40.22, DNS:iccluster096.iccluster.epfl.ch
            X509v3 Subject Key Identifier: 
                28:42:0C:92:AB:FF:E2:3D:E6:7E:ED:5E:77:C3:B5:27:8A:49:18:84
    Signature Algorithm: sha256WithRSAEncryption
         aa:3a:da:db:fa:c6:5a:16:1b:6d:7b:49:5b:62:2a:61:3a:a4:
         b9:09:60:31:54:73:d3:ad:20:60:f6:4b:ce:50:f4:76:f0:e9:
         f8:d5:f9:8f:66:99:25:d9:56:95:e8:d8:0f:8a:ba:04:ce:8f:
         d1:70:e6:ab:c3:9e:c9:24:4c:d4:33:8e:30:8d:44:e5:71:fe:
         62:a5:fc:a5:26:7f:49:74:1e:71:82:4d:53:d1:62:bc:c7:91:
         dc:0b:de:cd:ce:da:39:6b:76:58:b8:58:5f:b6:90:9f:5a:31:
         1f:e7:27:5e:e5:06:38:e1:47:29:56:f1:cb:94:c1:30:98:1f:
         77:a2:c3:d6:d8:94:2e:2f:a5:d5:f8:26:98:ca:08:94:db:5f:
         9a:29:14:ad:9b:91:31:03:9f:f4:42:d3:3d:80:96:8e:68:e8:
         f1:85:43:1d:95:0b:f8:e1:cb:3a:a0:64:af:cd:26:be:a6:db:
         e1:de:34:17:8f:37:a9:26:e4:d5:98:cb:52:06:02:00:ec:59:
         3e:ef:21:69:38:b0:9d:3f:7a:eb:e2:09:75:66:ac:f4:6e:7b:
         7c:2d:13:4a:48:f4:a7:2c:38:7d:8d:3d:0d:23:c7:b9:93:e7:
         87:34:de:26:bd:6c:b2:cf:c7:0b:c0:95:6b:4c:2f:ee:68:ac:
         41:c6:44:53
-----BEGIN CERTIFICATE-----
MIIDkTCCAnmgAwIBAgIJAMihttmlZZVaMA0GCSqGSIb3DQEBCwUAMD0xCzAJBgNV
BAYTAnh4MQowCAYDVQQIDAF4MQowCAYDVQQKDAF4MQowCAYDVQQLDAF4MQowCAYD
VQQDDAF4MB4XDTE4MDQyODEzNDM1N1oXDTE5MDQyODEzNDM1N1owdDELMAkGA1UE
BhMCQ0gxCzAJBgNVBAgTAlZEMREwDwYDVQQHEwhMYXVzYW5uZTENMAsGA1UEChME
RVBGTDENMAsGA1UECxMETENBMTEnMCUGA1UEAxMeaWNjbHVzdGVyMDk2LmljY2x1
c3Rlci5lcGZsLmNoMIIBIjANBgkqhkiG9w0BAQEFAAOCAQ8AMIIBCgKCAQEAxVNI
1BqTuhDx1Hn7RM4jm3g+TWQchzpZJ0hD4RqgPoT8Z4SU/NTYvjIf697ttnmh5pCi
8kI8GJ1NUiUOSObak1r5AEpkYciW/0HVpzf6KKAPMTH7iHtMJ/TZmFhur9NLcaPG
d2tCdxgOOH225J7kKvw2fQNo6FbOm+onAxTLm5TF9rsWofTHzAc+6LCGl1Xdirzk
KribhebQDq8pz4LlqfxRA51x1Nb5BbT6mdA1akC4k5nPAQiN3xhrSG/4pmmBS+HW
RfNQpIklazfjGdVkyNpFDaE5+ZvOG9wRqN68kpXVztavGeYC/u5NBXUYbekpFa0Y
iowssQ5zIRy4BhSnwQIDAQABo10wWzAJBgNVHRMEAjAAMC8GA1UdEQQoMCaHBApa
KBaCHmljY2x1c3RlcjA5Ni5pY2NsdXN0ZXIuZXBmbC5jaDAdBgNVHQ4EFgQUKEIM
kqv/4j3mfu1ed8O1J4pJGIQwDQYJKoZIhvcNAQELBQADggEBAKo62tv6xloWG217
SVtiKmE6pLkJYDFUc9OtIGD2S85Q9Hbw6fjV+Y9mmSXZVpXo2A+KugTOj9Fw5qvD
nskkTNQzjjCNROVx/mKl/KUmf0l0HnGCTVPRYrzHkdwL3s3O2jlrdli4WF+2kJ9a
MR/nJ17lBjjhRylW8cuUwTCYH3eiw9bYlC4vpdX4JpjKCJTbX5opFK2bkTEDn/RC
0z2Alo5o6PGFQx2VC/jhyzqgZK/NJr6m2+HeNBePN6km5NWYy1IGAgDsWT7vIWk4
sJ0/euviCXVmrPRue3wtE0pI9KcsOH2NPQ0jx7mT54c03ia9bLLPxwvAlWtML+5o
rEHGRFM=
-----END CERTIFICATE-----
