Certificate:
    Data:
        Version: 3 (0x2)
        Serial Number: 16008084551790150876 (0xde282415dbdec4dc)
    Signature Algorithm: sha256WithRSAEncryption
        Issuer: C=xx, ST=x, O=x, OU=x, CN=x
        Validity
            Not Before: May  3 09:15:14 2018 GMT
            Not After : May  3 09:15:14 2019 GMT
        Subject: C=CH, ST=VD, L=Lausanne, O=EPFL, OU=LCA1, CN=iccluster072.iccluster.epfl.ch
        Subject Public Key Info:
            Public Key Algorithm: rsaEncryption
                Public-Key: (2048 bit)
                Modulus:
                    00:8e:c3:e8:bc:53:2a:e6:bf:e3:8c:05:42:e2:1c:
                    7f:2e:34:3b:42:1a:8c:d2:39:6b:73:92:45:71:c9:
                    6b:ec:c7:a3:bc:6f:c5:4c:e3:df:87:57:d9:ed:68:
                    0c:d5:25:18:12:21:93:3a:2b:21:7b:b1:30:07:fa:
                    45:0e:be:ed:f7:2d:ff:b9:ff:3c:a8:68:fa:c1:a3:
                    4c:92:e0:0b:b8:cc:47:22:2e:6b:32:a4:da:3c:72:
                    da:de:b8:45:f3:6a:85:ce:d1:1c:87:a4:43:51:a2:
                    04:f0:14:ef:0d:9b:20:62:22:5c:5c:61:1a:3a:33:
                    1b:3c:aa:1e:86:bd:b9:e5:6f:f8:20:41:9c:67:cb:
                    40:30:74:9b:90:65:5c:d1:d6:fd:21:21:d0:97:a2:
                    a6:9f:71:7c:0a:17:fd:46:b3:b7:57:f4:51:06:50:
                    f2:a9:37:e3:b6:db:2e:14:1a:f2:6f:a1:3e:d4:6a:
                    f8:da:b9:bf:b3:25:83:e0:9b:d8:e9:3d:64:3d:e1:
                    36:e2:32:bb:6c:5e:ba:db:5a:bf:51:20:cb:f4:a2:
                    2f:6c:04:a2:df:e5:dd:cb:1c:7b:10:b7:66:7c:d7:
                    c6:ee:60:ed:66:ba:77:7c:db:2b:65:48:cd:96:9a:
                    98:4a:35:bc:68:7f:be:89:9d:86:fb:aa:ae:fc:8f:
                    83:ad
                Exponent: 65537 (0x10001)
        X509v3 extensions:
            X509v3 Basic Constraints: 
                CA:FALSE
            X509v3 Subject Alternative Name: 
                IP Address:10.90.39.23, DNS:iccluster072.iccluster.epfl.ch
            X509v3 Subject Key Identifier: 
                15:F6:76:60:F5:80:77:3B:ED:6B:FC:34:25:12:61:2D:BF:2A:D7:27
    Signature Algorithm: sha256WithRSAEncryption
         22:d6:ea:e5:d2:af:90:77:1d:9f:3e:25:41:52:c2:e8:aa:9c:
         b5:fe:1f:0f:05:a5:55:bc:25:53:93:80:84:34:65:f8:55:32:
         38:0e:4a:11:b9:c6:ce:a2:fe:95:0b:60:60:1b:db:6e:26:7f:
         51:dc:26:d5:70:6e:4a:04:d8:49:b9:fb:68:f6:50:55:d5:d4:
         e4:59:67:a3:3a:d4:df:de:45:3d:6b:e2:9e:05:42:57:5e:10:
         ce:99:ba:d2:c2:49:36:08:f1:d7:d3:6a:ec:c6:7b:51:10:07:
         e2:29:48:95:43:d2:49:1b:e6:3c:49:86:09:d4:dc:ed:ea:83:
         97:18:de:a9:08:3e:3b:7f:8c:36:78:29:1d:1b:a9:0e:47:1b:
         da:15:ef:04:5f:1d:e9:da:71:4b:50:1b:46:3b:11:f5:f9:91:
         c6:20:26:80:18:99:a0:74:7f:26:21:34:37:0c:de:54:f3:ab:
         f9:56:5d:3c:46:7d:db:f9:03:76:e6:68:f7:44:f6:a3:83:35:
         6f:2b:ea:2b:35:df:78:29:12:11:eb:55:c8:d7:67:5a:e8:db:
         a9:6d:83:42:dc:68:cb:37:53:e6:64:14:64:1c:05:81:ce:27:
         39:7e:3e:e7:57:af:d1:18:b9:22:f2:7b:4b:6f:a3:fe:bb:57:
         53:17:09:67
-----BEGIN CERTIFICATE-----
MIIDkTCCAnmgAwIBAgIJAN4oJBXb3sTcMA0GCSqGSIb3DQEBCwUAMD0xCzAJBgNV
BAYTAnh4MQowCAYDVQQIDAF4MQowCAYDVQQKDAF4MQowCAYDVQQLDAF4MQowCAYD
VQQDDAF4MB4XDTE4MDUwMzA5MTUxNFoXDTE5MDUwMzA5MTUxNFowdDELMAkGA1UE
BhMCQ0gxCzAJBgNVBAgTAlZEMREwDwYDVQQHEwhMYXVzYW5uZTENMAsGA1UEChME
RVBGTDENMAsGA1UECxMETENBMTEnMCUGA1UEAxMeaWNjbHVzdGVyMDcyLmljY2x1
c3Rlci5lcGZsLmNoMIIBIjANBgkqhkiG9w0BAQEFAAOCAQ8AMIIBCgKCAQEAjsPo
vFMq5r/jjAVC4hx/LjQ7QhqM0jlrc5JFcclr7MejvG/FTOPfh1fZ7WgM1SUYEiGT
Oishe7EwB/pFDr7t9y3/uf88qGj6waNMkuALuMxHIi5rMqTaPHLa3rhF82qFztEc
h6RDUaIE8BTvDZsgYiJcXGEaOjMbPKoehr255W/4IEGcZ8tAMHSbkGVc0db9ISHQ
l6Kmn3F8Chf9RrO3V/RRBlDyqTfjttsuFBryb6E+1Gr42rm/syWD4JvY6T1kPeE2
4jK7bF6621q/USDL9KIvbASi3+Xdyxx7ELdmfNfG7mDtZrp3fNsrZUjNlpqYSjW8
aH++iZ2G+6qu/I+DrQIDAQABo10wWzAJBgNVHRMEAjAAMC8GA1UdEQQoMCaHBApa
JxeCHmljY2x1c3RlcjA3Mi5pY2NsdXN0ZXIuZXBmbC5jaDAdBgNVHQ4EFgQUFfZ2
YPWAdzvta/w0JRJhLb8q1ycwDQYJKoZIhvcNAQELBQADggEBACLW6uXSr5B3HZ8+
JUFSwuiqnLX+Hw8FpVW8JVOTgIQ0ZfhVMjgOShG5xs6i/pULYGAb224mf1HcJtVw
bkoE2Em5+2j2UFXV1ORZZ6M61N/eRT1r4p4FQldeEM6ZutLCSTYI8dfTauzGe1EQ
B+IpSJVD0kkb5jxJhgnU3O3qg5cY3qkIPjt/jDZ4KR0bqQ5HG9oV7wRfHenacUtQ
G0Y7EfX5kcYgJoAYmaB0fyYhNDcM3lTzq/lWXTxGfdv5A3bmaPdE9qODNW8r6is1
33gpEhHrVcjXZ1ro26ltg0LcaMs3U+ZkFGQcBYHOJzl+PudXr9EYuSLye0tvo/67
V1MXCWc=
-----END CERTIFICATE-----
