Certificate:
    Data:
        Version: 3 (0x2)
        Serial Number: 16008084551790150877 (0xde282415dbdec4dd)
    Signature Algorithm: sha256WithRSAEncryption
        Issuer: C=xx, ST=x, O=x, OU=x, CN=x
        Validity
            Not Before: May  3 09:15:21 2018 GMT
            Not After : May  3 09:15:21 2019 GMT
        Subject: C=CH, ST=VD, L=Lausanne, O=EPFL, OU=LCA1, CN=iccluster081.iccluster.epfl.ch
        Subject Public Key Info:
            Public Key Algorithm: rsaEncryption
                Public-Key: (2048 bit)
                Modulus:
                    00:98:d5:fb:8f:74:6f:a9:68:7e:06:45:c0:ff:67:
                    b0:15:af:93:28:12:a5:49:4f:ed:91:10:73:11:a8:
                    ec:5d:26:53:55:c3:e7:3d:e5:b5:80:f3:fd:b4:b1:
                    e6:fd:81:37:93:98:ee:e2:da:c4:e7:67:d2:3d:23:
                    a9:1c:42:05:64:64:cb:7f:fa:db:aa:18:d1:79:f9:
                    d3:45:b9:c0:e9:78:d2:a0:35:90:e6:e9:17:6a:12:
                    fc:af:11:65:25:de:44:86:8d:34:c7:63:2e:6a:11:
                    af:35:f6:92:bf:80:6e:ec:85:40:4a:9e:f3:83:2a:
                    d7:f3:d4:62:04:12:cc:4c:d4:1a:f3:fc:c1:43:71:
                    97:33:b4:76:80:fb:e1:0c:56:89:b1:97:d7:ee:8b:
                    1a:a4:40:90:28:b4:cf:d2:54:47:6d:23:85:67:ff:
                    e8:6a:f0:6f:63:db:61:71:ac:8a:ab:fb:98:b4:74:
                    d5:b0:0b:f6:4c:11:6f:a0:8e:24:37:e4:4d:5a:6d:
                    97:58:bf:17:1e:ed:f0:af:29:2c:9b:a4:3b:c4:aa:
                    c4:da:f2:ca:08:80:d9:d7:4a:c9:e3:8f:c8:9d:71:
                    42:c4:cb:f2:33:25:41:92:7e:89:fd:a5:c0:54:41:
                    89:7f:54:45:49:e5:2c:47:0e:fe:d8:b3:87:15:38:
                    af:a9
                Exponent: 65537 (0x10001)
        X509v3 extensions:
            X509v3 Basic Constraints: 
                CA:FALSE
            X509v3 Subject Alternative Name: 
                IP Address:10.90.40.7, DNS:iccluster081.iccluster.epfl.ch
            X509v3 Subject Key Identifier: 
                99:14:BD:6C:11:7F:10:CF:A1:C4:7E:C3:8E:21:31:29:AE:92:E4:51
    Signature Algorithm: sha256WithRSAEncryption
         1b:fd:84:e1:e2:14:d0:7d:34:d7:17:e9:ea:ad:d9:56:6e:43:
         0e:19:f5:4b:cd:57:05:c1:4b:34:5d:00:d1:52:48:73:eb:06:
         1f:ef:67:ea:e9:02:da:93:1e:b2:9c:f0:52:6f:0e:77:a1:24:
         de:6e:6e:3a:3f:7f:04:42:6f:89:9d:7f:48:fb:06:bb:36:bc:
         08:5b:ed:77:93:78:ad:8a:f0:be:19:5b:1f:25:92:5c:48:fd:
         ce:61:22:53:37:25:36:0a:8f:63:5e:b2:2c:1f:7c:eb:21:2d:
         74:82:86:73:e2:60:b4:14:17:b9:59:fa:f4:18:b4:d6:b1:57:
         a8:ba:95:93:24:f3:de:6d:dc:87:45:fd:50:bd:41:60:9f:27:
         a8:95:c0:6d:3b:2b:e5:88:8d:06:79:1e:71:eb:d2:60:5f:43:
         42:be:36:a9:d9:5b:9d:ca:3e:ec:f1:a9:63:6b:86:83:55:3b:
         f7:65:8f:9a:74:43:26:95:15:c3:2b:42:52:7b:a3:d3:c0:8b:
         c8:e1:e6:7d:09:0e:fb:0c:2c:c5:d3:37:fa:70:35:90:1b:21:
         1d:23:c7:77:47:3b:46:7f:16:41:9c:35:8b:a1:d4:04:00:3e:
         81:fe:f6:b5:e5:8b:03:2b:86:b8:80:9e:25:8c:ee:1c:2e:0e:
         1e:a3:5a:3d
-----BEGIN CERTIFICATE-----
MIIDkTCCAnmgAwIBAgIJAN4oJBXb3sTdMA0GCSqGSIb3DQEBCwUAMD0xCzAJBgNV
BAYTAnh4MQowCAYDVQQIDAF4MQowCAYDVQQKDAF4MQowCAYDVQQLDAF4MQowCAYD
VQQDDAF4MB4XDTE4MDUwMzA5MTUyMVoXDTE5MDUwMzA5MTUyMVowdDELMAkGA1UE
BhMCQ0gxCzAJBgNVBAgTAlZEMREwDwYDVQQHEwhMYXVzYW5uZTENMAsGA1UEChME
RVBGTDENMAsGA1UECxMETENBMTEnMCUGA1UEAxMeaWNjbHVzdGVyMDgxLmljY2x1
c3Rlci5lcGZsLmNoMIIBIjANBgkqhkiG9w0BAQEFAAOCAQ8AMIIBCgKCAQEAmNX7
j3RvqWh+BkXA/2ewFa+TKBKlSU/tkRBzEajsXSZTVcPnPeW1gPP9tLHm/YE3k5ju
4trE52fSPSOpHEIFZGTLf/rbqhjRefnTRbnA6XjSoDWQ5ukXahL8rxFlJd5Eho00
x2MuahGvNfaSv4Bu7IVASp7zgyrX89RiBBLMTNQa8/zBQ3GXM7R2gPvhDFaJsZfX
7osapECQKLTP0lRHbSOFZ//oavBvY9thcayKq/uYtHTVsAv2TBFvoI4kN+RNWm2X
WL8XHu3wryksm6Q7xKrE2vLKCIDZ10rJ44/InXFCxMvyMyVBkn6J/aXAVEGJf1RF
SeUsRw7+2LOHFTivqQIDAQABo10wWzAJBgNVHRMEAjAAMC8GA1UdEQQoMCaHBApa
KAeCHmljY2x1c3RlcjA4MS5pY2NsdXN0ZXIuZXBmbC5jaDAdBgNVHQ4EFgQUmRS9
bBF/EM+hxH7DjiExKa6S5FEwDQYJKoZIhvcNAQELBQADggEBABv9hOHiFNB9NNcX
6eqt2VZuQw4Z9UvNVwXBSzRdANFSSHPrBh/vZ+rpAtqTHrKc8FJvDnehJN5ubjo/
fwRCb4mdf0j7Brs2vAhb7XeTeK2K8L4ZWx8lklxI/c5hIlM3JTYKj2NesiwffOsh
LXSChnPiYLQUF7lZ+vQYtNaxV6i6lZMk895t3IdF/VC9QWCfJ6iVwG07K+WIjQZ5
HnHr0mBfQ0K+NqnZW53KPuzxqWNrhoNVO/dlj5p0QyaVFcMrQlJ7o9PAi8jh5n0J
DvsMLMXTN/pwNZAbIR0jx3dHO0Z/FkGcNYuh1AQAPoH+9rXliwMrhriAniWM7hwu
Dh6jWj0=
-----END CERTIFICATE-----
