Certificate:
    Data:
        Version: 3 (0x2)
        Serial Number: 16008084551790150879 (0xde282415dbdec4df)
    Signature Algorithm: sha256WithRSAEncryption
        Issuer: C=xx, ST=x, O=x, OU=x, CN=x
        Validity
            Not Before: May  3 09:15:35 2018 GMT
            Not After : May  3 09:15:35 2019 GMT
        Subject: C=CH, ST=VD, L=Lausanne, O=EPFL, OU=LCA1, CN=iccluster102.iccluster.epfl.ch
        Subject Public Key Info:
            Public Key Algorithm: rsaEncryption
                Public-Key: (2048 bit)
                Modulus:
                    00:ad:c6:c5:80:ae:1b:f1:3b:1f:ff:c5:bc:27:47:
                    f6:bb:c0:8c:59:c4:ba:ea:9d:06:b4:f4:6e:2f:3d:
                    d8:e4:26:6a:29:fc:49:1b:a8:6d:28:d2:10:6f:8c:
                    61:67:3d:7c:21:02:51:c3:6f:6c:3d:e7:93:16:91:
                    00:96:35:3b:72:64:27:fb:37:c2:eb:a3:95:21:5b:
                    23:fb:1c:d9:84:97:7f:51:db:c4:6a:db:60:a4:e3:
                    7a:1a:97:b7:ab:a8:4f:32:d0:ba:a2:bc:6f:6d:c6:
                    e4:d5:f3:a1:ab:ae:ef:64:ee:dd:e5:43:40:7d:72:
                    ad:a3:b7:a9:3d:96:d2:6e:5e:5b:f1:b4:66:ca:61:
                    45:7f:b6:99:a4:1c:b5:ce:60:a6:13:95:b5:b5:39:
                    18:e0:e8:6d:3d:7c:e1:74:1a:53:57:ba:cd:88:4f:
                    9f:10:4e:36:99:df:19:9b:08:d8:2d:61:de:a2:b7:
                    4d:cc:e5:f5:3e:86:7b:01:2f:f5:cb:6c:d7:37:49:
                    77:35:d8:b3:ec:ef:fc:62:9e:e3:df:8e:72:ab:64:
                    f1:b2:c5:d5:06:a3:8d:5d:82:a8:24:42:f6:cc:7e:
                    5a:78:09:9b:4c:c0:ab:25:3d:de:30:a1:c0:a9:d3:
                    67:6b:1b:c2:38:f7:e9:cc:33:d6:ec:aa:bc:8d:fc:
                    2d:53
                Exponent: 65537 (0x10001)
        X509v3 extensions:
            X509v3 Basic Constraints: 
                CA:FALSE
            X509v3 Subject Alternative Name: 
                IP Address:10.90.36.32, DNS:iccluster102.iccluster.epfl.ch
            X509v3 Subject Key Identifier: 
                AD:71:D9:CB:D3:51:1C:50:8C:A7:4F:69:DD:1A:3A:27:CB:5B:2C:B8
    Signature Algorithm: sha256WithRSAEncryption
         aa:39:18:a1:01:a6:d2:c7:10:8c:bf:16:fd:e9:49:ab:75:d8:
         fd:9c:7d:9b:ab:f7:fa:7a:a8:16:d9:5c:93:fa:2a:f7:2b:83:
         28:f3:b8:0a:3c:33:d8:69:be:1a:22:69:2a:af:5b:1f:d7:8d:
         19:57:67:e9:b2:77:f9:5a:4f:ec:3c:24:c8:db:d0:32:33:86:
         3d:e7:ec:7c:65:bb:87:6c:51:8e:cf:2e:e1:f2:b9:11:28:e4:
         2b:37:7c:0e:1e:5f:aa:60:5f:0b:02:06:0f:79:b6:f4:d2:cf:
         6b:17:16:9d:c1:1a:c2:87:07:c3:08:2c:55:ce:88:9d:d2:76:
         17:97:c6:99:c3:2a:44:bb:03:55:82:95:81:a0:d2:74:5b:ed:
         f8:f0:e6:bf:b4:3c:c0:8a:87:3b:8d:2b:53:59:df:7d:f5:49:
         f5:ef:af:e5:59:1e:8f:65:ef:27:2c:a0:34:b8:1d:6c:da:b4:
         a7:ef:16:99:7c:60:a7:1e:91:95:e3:c7:87:92:72:75:e3:29:
         40:b8:29:ac:ff:73:1e:f1:26:9f:90:7f:9c:07:be:85:22:b1:
         b0:cf:fc:e3:4d:ea:12:76:8d:d6:87:57:ba:12:d5:80:24:31:
         1f:d1:f6:d6:f9:ce:a7:a2:90:db:55:1e:3a:13:8f:17:12:c2:
         4f:e0:1c:24
-----BEGIN CERTIFICATE-----
MIIDkTCCAnmgAwIBAgIJAN4oJBXb3sTfMA0GCSqGSIb3DQEBCwUAMD0xCzAJBgNV
BAYTAnh4MQowCAYDVQQIDAF4MQowCAYDVQQKDAF4MQowCAYDVQQLDAF4MQowCAYD
VQQDDAF4MB4XDTE4MDUwMzA5MTUzNVoXDTE5MDUwMzA5MTUzNVowdDELMAkGA1UE
BhMCQ0gxCzAJBgNVBAgTAlZEMREwDwYDVQQHEwhMYXVzYW5uZTENMAsGA1UEChME
RVBGTDENMAsGA1UECxMETENBMTEnMCUGA1UEAxMeaWNjbHVzdGVyMTAyLmljY2x1
c3Rlci5lcGZsLmNoMIIBIjANBgkqhkiG9w0BAQEFAAOCAQ8AMIIBCgKCAQEArcbF
gK4b8Tsf/8W8J0f2u8CMWcS66p0GtPRuLz3Y5CZqKfxJG6htKNIQb4xhZz18IQJR
w29sPeeTFpEAljU7cmQn+zfC66OVIVsj+xzZhJd/UdvEattgpON6Gpe3q6hPMtC6
orxvbcbk1fOhq67vZO7d5UNAfXKto7epPZbSbl5b8bRmymFFf7aZpBy1zmCmE5W1
tTkY4OhtPXzhdBpTV7rNiE+fEE42md8ZmwjYLWHeordNzOX1PoZ7AS/1y2zXN0l3
Ndiz7O/8Yp7j345yq2TxssXVBqONXYKoJEL2zH5aeAmbTMCrJT3eMKHAqdNnaxvC
OPfpzDPW7Kq8jfwtUwIDAQABo10wWzAJBgNVHRMEAjAAMC8GA1UdEQQoMCaHBApa
JCCCHmljY2x1c3RlcjEwMi5pY2NsdXN0ZXIuZXBmbC5jaDAdBgNVHQ4EFgQUrXHZ
y9NRHFCMp09p3Ro6J8tbLLgwDQYJKoZIhvcNAQELBQADggEBAKo5GKEBptLHEIy/
Fv3pSat12P2cfZur9/p6qBbZXJP6KvcrgyjzuAo8M9hpvhoiaSqvWx/XjRlXZ+my
d/laT+w8JMjb0DIzhj3n7Hxlu4dsUY7PLuHyuREo5Cs3fA4eX6pgXwsCBg95tvTS
z2sXFp3BGsKHB8MILFXOiJ3SdheXxpnDKkS7A1WClYGg0nRb7fjw5r+0PMCKhzuN
K1NZ3331SfXvr+VZHo9l7ycsoDS4HWzatKfvFpl8YKcekZXjx4eScnXjKUC4Kaz/
cx7xJp+Qf5wHvoUisbDP/ONN6hJ2jdaHV7oS1YAkMR/R9tb5zqeikNtVHjoTjxcS
wk/gHCQ=
-----END CERTIFICATE-----
