Certificate:
    Data:
        Version: 3 (0x2)
        Serial Number: 16008084551790150873 (0xde282415dbdec4d9)
    Signature Algorithm: sha256WithRSAEncryption
        Issuer: C=xx, ST=x, O=x, OU=x, CN=x
        Validity
            Not Before: May  3 09:14:56 2018 GMT
            Not After : May  2 09:14:56 2021 GMT
        Subject: C=xx, ST=x, O=x, OU=x, CN=x
        Subject Public Key Info:
            Public Key Algorithm: rsaEncryption
                Public-Key: (2048 bit)
                Modulus:
                    00:b7:52:6d:32:1f:05:93:6f:8b:5f:b8:4a:3a:1b:
                    c8:3a:de:fd:96:ca:70:95:6e:56:95:23:11:38:33:
                    f9:2c:1a:e0:d0:4b:04:95:f9:20:78:25:62:f4:b2:
                    b2:5d:db:6f:64:81:e6:7d:f6:2a:8b:68:a6:64:50:
                    4b:eb:ec:c9:f6:f9:69:90:31:4a:c3:d7:78:9b:1c:
                    79:1c:8c:00:4e:68:6f:f4:3b:bb:4f:78:6b:59:bd:
                    ec:77:78:72:f2:ab:06:90:49:6b:38:68:62:c2:a0:
                    36:34:91:6b:3b:a9:cc:e6:1c:fd:e0:a0:0f:48:fc:
                    2b:f7:ea:75:db:b3:56:f2:82:d3:b1:92:d6:22:ad:
                    13:ad:2b:a7:f8:96:15:25:9d:71:fa:a2:82:46:c2:
                    96:7e:21:f1:ed:d2:8d:3e:19:06:a7:9d:eb:01:33:
                    04:38:8a:60:a9:05:23:75:de:0e:7b:69:1e:36:8d:
                    a6:07:2b:34:4d:4f:6a:91:41:41:7b:28:ed:eb:81:
                    24:00:96:c2:58:5b:ac:37:5e:a5:55:00:6c:d8:77:
                    ef:71:55:dd:7b:95:5a:10:cc:2d:8c:88:ae:db:60:
                    57:8f:7b:dd:a8:0f:ca:90:24:93:8c:2b:67:4d:00:
                    2e:43:92:3d:20:7f:5a:28:7c:20:97:4d:e9:13:62:
                    1f:4b
                Exponent: 65537 (0x10001)
        X509v3 extensions:
            X509v3 Subject Key Identifier: 
                1B:7A:D0:15:4E:4F:5D:9B:D3:3F:B5:6C:EE:76:14:55:DB:0E:76:6F
            X509v3 Authority Key Identifier: 
                keyid:1B:7A:D0:15:4E:4F:5D:9B:D3:3F:B5:6C:EE:76:14:55:DB:0E:76:6F

            X509v3 Basic Constraints: 
                CA:TRUE
    Signature Algorithm: sha256WithRSAEncryption
         75:73:15:10:61:94:c3:86:1d:c0:a2:ff:71:5a:31:76:bf:9b:
         88:5a:de:55:da:d3:63:ec:d9:45:70:53:8f:37:d3:e7:f8:a3:
         d9:13:32:bb:4a:00:cf:11:a5:14:43:40:a6:6e:7e:d9:28:e7:
         3d:8e:59:b4:da:9b:4b:0b:51:a1:de:af:90:ee:77:eb:a8:fb:
         f8:e4:fe:ee:de:07:c6:82:7c:43:4d:61:2d:8f:82:95:51:03:
         a0:59:cb:80:91:23:5c:74:0c:e5:a3:c5:18:d2:ee:b8:6c:4d:
         c6:79:37:bd:26:31:7c:57:c0:e9:d1:41:3d:e6:dd:59:b0:47:
         5f:5d:40:8b:81:57:d4:9d:28:dd:1e:07:bd:22:c2:01:1c:df:
         6f:54:0e:18:11:b6:0f:b5:fe:c2:a0:35:68:ec:c5:c7:99:eb:
         69:12:f7:c1:4d:4c:58:ce:35:33:3b:9d:42:84:f2:4a:2f:43:
         fb:cc:67:cd:0b:15:24:2e:f5:92:f1:f0:a0:98:63:74:2e:e2:
         00:81:98:48:2a:62:6e:83:15:79:66:79:d6:88:14:fe:d2:59:
         df:25:85:d5:f2:9f:fa:e4:04:dd:7e:9b:6d:c6:c9:3d:e9:31:
         83:c4:1a:13:a0:e9:66:1e:76:72:8a:52:2c:60:e3:d0:51:f6:
         c6:bc:cb:b0
-----BEGIN CERTIFICATE-----
MIIDTTCCAjWgAwIBAgIJAN4oJBXb3sTZMA0GCSqGSIb3DQEBCwUAMD0xCzAJBgNV
BAYTAnh4MQowCAYDVQQIDAF4MQowCAYDVQQKDAF4MQowCAYDVQQLDAF4MQowCAYD
VQQDDAF4MB4XDTE4MDUwMzA5MTQ1NloXDTIxMDUwMjA5MTQ1NlowPTELMAkGA1UE
BhMCeHgxCjAIBgNVBAgMAXgxCjAIBgNVBAoMAXgxCjAIBgNVBAsMAXgxCjAIBgNV
BAMMAXgwggEiMA0GCSqGSIb3DQEBAQUAA4IBDwAwggEKAoIBAQC3Um0yHwWTb4tf
uEo6G8g63v2WynCVblaVIxE4M/ksGuDQSwSV+SB4JWL0srJd229kgeZ99iqLaKZk
UEvr7Mn2+WmQMUrD13ibHHkcjABOaG/0O7tPeGtZvex3eHLyqwaQSWs4aGLCoDY0
kWs7qczmHP3goA9I/Cv36nXbs1bygtOxktYirROtK6f4lhUlnXH6ooJGwpZ+IfHt
0o0+GQannesBMwQ4imCpBSN13g57aR42jaYHKzRNT2qRQUF7KO3rgSQAlsJYW6w3
XqVVAGzYd+9xVd17lVoQzC2MiK7bYFePe92oD8qQJJOMK2dNAC5Dkj0gf1oofCCX
TekTYh9LAgMBAAGjUDBOMB0GA1UdDgQWBBQbetAVTk9dm9M/tWzudhRV2w52bzAf
BgNVHSMEGDAWgBQbetAVTk9dm9M/tWzudhRV2w52bzAMBgNVHRMEBTADAQH/MA0G
CSqGSIb3DQEBCwUAA4IBAQB1cxUQYZTDhh3Aov9xWjF2v5uIWt5V2tNj7NlFcFOP
N9Pn+KPZEzK7SgDPEaUUQ0Cmbn7ZKOc9jlm02ptLC1Gh3q+Q7nfrqPv45P7u3gfG
gnxDTWEtj4KVUQOgWcuAkSNcdAzlo8UY0u64bE3GeTe9JjF8V8Dp0UE95t1ZsEdf
XUCLgVfUnSjdHge9IsIBHN9vVA4YEbYPtf7CoDVo7MXHmetpEvfBTUxYzjUzO51C
hPJKL0P7zGfNCxUkLvWS8fCgmGN0LuIAgZhIKmJugxV5ZnnWiBT+0lnfJYXV8p/6
5ATdfpttxsk96TGDxBoToOlmHnZyilIsYOPQUfbGvMuw
-----END CERTIFICATE-----
