Certificate:
    Data:
        Version: 3 (0x2)
        Serial Number: 16008084551790150875 (0xde282415dbdec4db)
    Signature Algorithm: sha256WithRSAEncryption
        Issuer: C=xx, ST=x, O=x, OU=x, CN=x
        Validity
            Not Before: May  3 09:15:06 2018 GMT
            Not After : May  3 09:15:06 2019 GMT
        Subject: C=CH, ST=VD, L=Lausanne, O=EPFL, OU=LCA1, CN=iccluster070.iccluster.epfl.ch
        Subject Public Key Info:
            Public Key Algorithm: rsaEncryption
                Public-Key: (2048 bit)
                Modulus:
                    00:b4:10:35:13:f4:90:2c:eb:1a:3c:49:4f:88:7c:
                    36:4c:7f:df:29:49:cf:d4:be:92:25:1f:bc:41:4a:
                    8b:2b:b6:50:c0:fb:90:69:97:b4:b0:7a:34:42:8c:
                    5c:84:a0:ad:18:9c:ba:a6:17:01:38:01:1e:0f:13:
                    d9:d3:99:fd:c4:0c:95:29:94:c1:39:19:7f:cf:31:
                    45:d0:a9:26:6b:82:59:f2:03:1f:e7:99:73:4b:dc:
                    01:43:6d:b1:4c:b9:bc:6d:6f:fb:fc:9d:4d:d9:81:
                    4a:ec:92:67:96:94:d2:73:22:3f:39:19:0b:05:8b:
                    01:7f:ec:e8:ff:82:62:a6:6f:4d:eb:dd:26:36:08:
                    5a:5e:f1:a0:57:e4:5c:91:a9:4b:c7:5d:9c:fc:1a:
                    a8:92:cd:8f:bf:9c:53:55:71:4f:98:3f:c7:03:e1:
                    97:3a:13:cc:dd:bf:b0:78:34:20:63:20:38:6e:2d:
                    33:1c:57:f4:33:41:c9:fb:40:57:72:a1:63:fd:21:
                    98:2b:00:5e:eb:69:31:3c:85:7a:bf:54:c1:46:6d:
                    49:ef:ea:df:84:5a:c3:89:06:9d:45:31:e5:f2:21:
                    c5:f9:4b:56:da:10:77:6d:a3:79:c7:42:44:0b:7f:
                    16:23:e7:c5:2f:84:d9:ae:66:1b:a7:3b:aa:ec:2d:
                    90:35
                Exponent: 65537 (0x10001)
        X509v3 extensions:
            X509v3 Basic Constraints: 
                CA:FALSE
            X509v3 Subject Alternative Name: 
                IP Address:10.90.39.21, DNS:iccluster070.iccluster.epfl.ch
            X509v3 Subject Key Identifier: 
                CF:5A:74:F1:39:7C:4A:3E:3B:46:3B:F3:D1:C2:1A:63:50:7D:1D:C6
    Signature Algorithm: sha256WithRSAEncryption
         87:50:e8:99:e5:b8:48:46:86:1a:2f:59:18:5a:3e:35:36:fc:
         04:24:3d:ca:f1:d7:ba:69:f0:b5:63:cb:2e:9c:8f:5b:58:87:
         e5:bd:dc:ba:ec:ed:19:e8:e2:c6:84:4a:5c:14:f3:01:4b:64:
         87:f2:fa:92:cd:ab:8e:ab:cb:bb:95:90:ed:44:c1:8b:76:f3:
         c3:5e:6d:9a:ef:d3:4b:91:e5:82:d4:ea:23:1f:21:52:21:3d:
         ec:e5:6e:33:62:36:e0:69:57:b9:88:2d:85:72:69:5d:37:c0:
         f1:71:58:bc:d9:6b:3f:c2:98:54:5b:28:97:55:88:8e:d1:81:
         24:f0:d3:e3:d9:21:de:b3:73:e7:bd:59:bb:da:c8:d5:9e:0a:
         fa:bf:e5:be:73:c3:19:b3:a9:c9:6a:31:c7:17:6d:b0:29:4f:
         79:03:f5:73:7b:d6:98:6d:11:6d:46:a0:c4:04:99:b7:4c:42:
         ce:02:63:8b:03:4d:aa:d2:65:8b:00:26:93:5f:a9:ea:ff:cd:
         5c:78:96:e1:a2:c7:3f:06:c3:6a:83:e6:c7:a8:95:bc:7d:c4:
         4c:5a:21:fc:06:5e:e6:7d:03:51:73:68:99:b8:82:df:2f:8c:
         fb:7e:9a:60:36:94:e1:9d:88:9f:3b:8d:79:08:f1:3d:70:a1:
         34:86:fd:89
-----BEGIN CERTIFICATE-----
MIIDkTCCAnmgAwIBAgIJAN4oJBXb3sTbMA0GCSqGSIb3DQEBCwUAMD0xCzAJBgNV
BAYTAnh4MQowCAYDVQQIDAF4MQowCAYDVQQKDAF4MQowCAYDVQQLDAF4MQowCAYD
VQQDDAF4MB4XDTE4MDUwMzA5MTUwNloXDTE5MDUwMzA5MTUwNlowdDELMAkGA1UE
BhMCQ0gxCzAJBgNVBAgTAlZEMREwDwYDVQQHEwhMYXVzYW5uZTENMAsGA1UEChME
RVBGTDENMAsGA1UECxMETENBMTEnMCUGA1UEAxMeaWNjbHVzdGVyMDcwLmljY2x1
c3Rlci5lcGZsLmNoMIIBIjANBgkqhkiG9w0BAQEFAAOCAQ8AMIIBCgKCAQEAtBA1
E/SQLOsaPElPiHw2TH/fKUnP1L6SJR+8QUqLK7ZQwPuQaZe0sHo0QoxchKCtGJy6
phcBOAEeDxPZ05n9xAyVKZTBORl/zzFF0Kkma4JZ8gMf55lzS9wBQ22xTLm8bW/7
/J1N2YFK7JJnlpTScyI/ORkLBYsBf+zo/4Jipm9N690mNghaXvGgV+RckalLx12c
/Bqoks2Pv5xTVXFPmD/HA+GXOhPM3b+weDQgYyA4bi0zHFf0M0HJ+0BXcqFj/SGY
KwBe62kxPIV6v1TBRm1J7+rfhFrDiQadRTHl8iHF+UtW2hB3baN5x0JEC38WI+fF
L4TZrmYbpzuq7C2QNQIDAQABo10wWzAJBgNVHRMEAjAAMC8GA1UdEQQoMCaHBApa
JxWCHmljY2x1c3RlcjA3MC5pY2NsdXN0ZXIuZXBmbC5jaDAdBgNVHQ4EFgQUz1p0
8Tl8Sj47Rjvz0cIaY1B9HcYwDQYJKoZIhvcNAQELBQADggEBAIdQ6JnluEhGhhov
WRhaPjU2/AQkPcrx17pp8LVjyy6cj1tYh+W93Lrs7Rno4saESlwU8wFLZIfy+pLN
q46ry7uVkO1EwYt288NebZrv00uR5YLU6iMfIVIhPezlbjNiNuBpV7mILYVyaV03
wPFxWLzZaz/CmFRbKJdViI7RgSTw0+PZId6zc+e9WbvayNWeCvq/5b5zwxmzqclq
MccXbbApT3kD9XN71phtEW1GoMQEmbdMQs4CY4sDTarSZYsAJpNfqer/zVx4luGi
xz8Gw2qD5seolbx9xExaIfwGXuZ9A1FzaJm4gt8vjPt+mmA2lOGdiJ87jXkI8T1w
oTSG/Yk=
-----END CERTIFICATE-----
