Certificate:
    Data:
        Version: 3 (0x2)
        Serial Number: 16008084551790150874 (0xde282415dbdec4da)
    Signature Algorithm: sha256WithRSAEncryption
        Issuer: C=xx, ST=x, O=x, OU=x, CN=x
        Validity
            Not Before: May  3 09:14:59 2018 GMT
            Not After : May  3 09:14:59 2019 GMT
        Subject: C=CH, ST=VD, L=Lausanne, O=EPFL, OU=LCA1, CN=iccluster056.iccluster.epfl.ch
        Subject Public Key Info:
            Public Key Algorithm: rsaEncryption
                Public-Key: (2048 bit)
                Modulus:
                    00:d6:5b:80:ab:eb:7d:8a:43:0c:3a:cb:b8:ba:a8:
                    58:86:14:7b:ec:97:33:be:dd:b0:62:a9:4b:5f:c8:
                    b8:ba:46:44:7c:5d:41:0e:60:03:f1:e9:b9:5b:df:
                    81:5c:17:2e:a7:d1:69:5e:03:ab:c7:07:fe:14:0f:
                    a7:2b:2b:b6:90:d3:21:5e:b3:45:f2:c2:ab:65:34:
                    5b:db:a3:33:c2:71:e2:70:46:f9:ba:b3:e4:a8:18:
                    c1:ad:1a:2d:e4:2a:a4:f6:a7:2f:e0:2d:c4:d0:f3:
                    4b:48:42:b9:47:80:09:7a:3d:44:92:6d:e2:4f:29:
                    0b:45:5c:c4:78:97:eb:e1:4a:63:2e:25:db:e8:22:
                    c1:89:cb:7e:a9:54:bb:fe:e5:ee:9b:43:57:3b:cb:
                    2e:66:22:e9:c2:b2:1d:54:a3:68:7c:28:af:82:33:
                    52:42:e3:1c:9b:85:d9:02:ee:19:59:ab:9e:58:73:
                    90:83:51:e8:80:2e:65:39:63:14:70:ac:dc:30:c3:
                    ef:47:1c:91:2f:43:f3:ea:56:c9:ec:65:10:01:b7:
                    8b:c6:34:21:a1:3f:69:73:ec:20:f8:69:24:b6:98:
                    77:69:79:61:77:da:57:d6:0c:78:d0:cf:a6:03:ad:
                    be:d0:01:71:4c:7e:bb:60:99:0a:7c:92:63:fc:c5:
                    95:4b
                Exponent: 65537 (0x10001)
        X509v3 extensions:
            X509v3 Basic Constraints: 
                CA:FALSE
            X509v3 Subject Alternative Name: 
                IP Address:10.90.39.7, DNS:iccluster056.iccluster.epfl.ch
            X509v3 Subject Key Identifier: 
                87:A8:62:20:66:22:1D:FE:C6:FF:42:C2:44:6F:CC:3B:CD:3E:41:BD
    Signature Algorithm: sha256WithRSAEncryption
         5e:81:df:e5:7f:58:3c:7d:a3:82:39:19:4c:c1:8f:c3:2a:69:
         0d:41:9d:35:08:8c:47:80:e6:93:68:90:cf:cc:f5:04:34:b2:
         78:89:d4:de:b6:0e:93:58:a8:7b:dd:e3:77:ac:f6:7d:ac:12:
         89:84:24:14:91:d0:f5:6d:ef:f0:b4:c4:66:74:fa:10:04:67:
         fd:4f:36:17:dd:6f:25:0d:7d:82:2e:51:76:2e:89:6e:fe:63:
         f9:15:41:f0:28:e3:cc:23:27:5e:3b:aa:21:2c:1e:47:db:f9:
         c4:7f:ed:f0:8a:4e:3f:af:e9:f8:52:10:72:a1:bf:b5:ef:ae:
         00:f5:ff:df:08:a8:99:fb:1d:3d:ac:69:3a:54:73:e6:28:90:
         6d:86:ec:c6:1f:ce:29:79:11:7c:0e:b5:04:c7:4b:68:d7:26:
         0f:6b:7b:2f:3a:12:0b:4a:b7:98:0c:7e:5a:52:d0:e5:e3:e4:
         15:59:1a:a7:46:dc:0c:46:7e:76:c7:21:80:59:45:2d:af:1e:
         25:25:54:5a:f8:11:ed:6d:1d:19:9c:71:f1:b0:c2:bd:3d:51:
         c2:ad:7a:15:6f:57:a1:f6:ea:fc:97:99:bd:ba:e2:3e:8a:f0:
         3f:e7:a7:24:5a:99:27:d1:b3:29:36:f1:af:67:4f:e4:87:b5:
         46:6d:59:65
-----BEGIN CERTIFICATE-----
MIIDkTCCAnmgAwIBAgIJAN4oJBXb3sTaMA0GCSqGSIb3DQEBCwUAMD0xCzAJBgNV
BAYTAnh4MQowCAYDVQQIDAF4MQowCAYDVQQKDAF4MQowCAYDVQQLDAF4MQowCAYD
VQQDDAF4MB4XDTE4MDUwMzA5MTQ1OVoXDTE5MDUwMzA5MTQ1OVowdDELMAkGA1UE
BhMCQ0gxCzAJBgNVBAgTAlZEMREwDwYDVQQHEwhMYXVzYW5uZTENMAsGA1UEChME
RVBGTDENMAsGA1UECxMETENBMTEnMCUGA1UEAxMeaWNjbHVzdGVyMDU2LmljY2x1
c3Rlci5lcGZsLmNoMIIBIjANBgkqhkiG9w0BAQEFAAOCAQ8AMIIBCgKCAQEA1luA
q+t9ikMMOsu4uqhYhhR77Jczvt2wYqlLX8i4ukZEfF1BDmAD8em5W9+BXBcup9Fp
XgOrxwf+FA+nKyu2kNMhXrNF8sKrZTRb26MzwnHicEb5urPkqBjBrRot5Cqk9qcv
4C3E0PNLSEK5R4AJej1Ekm3iTykLRVzEeJfr4UpjLiXb6CLBict+qVS7/uXum0NX
O8suZiLpwrIdVKNofCivgjNSQuMcm4XZAu4ZWaueWHOQg1HogC5lOWMUcKzcMMPv
RxyRL0Pz6lbJ7GUQAbeLxjQhoT9pc+wg+Gkktph3aXlhd9pX1gx40M+mA62+0AFx
TH67YJkKfJJj/MWVSwIDAQABo10wWzAJBgNVHRMEAjAAMC8GA1UdEQQoMCaHBApa
JweCHmljY2x1c3RlcjA1Ni5pY2NsdXN0ZXIuZXBmbC5jaDAdBgNVHQ4EFgQUh6hi
IGYiHf7G/0LCRG/MO80+Qb0wDQYJKoZIhvcNAQELBQADggEBAF6B3+V/WDx9o4I5
GUzBj8MqaQ1BnTUIjEeA5pNokM/M9QQ0sniJ1N62DpNYqHvd43es9n2sEomEJBSR
0PVt7/C0xGZ0+hAEZ/1PNhfdbyUNfYIuUXYuiW7+Y/kVQfAo48wjJ147qiEsHkfb
+cR/7fCKTj+v6fhSEHKhv7XvrgD1/98IqJn7HT2saTpUc+YokG2G7MYfzil5EXwO
tQTHS2jXJg9rey86EgtKt5gMflpS0OXj5BVZGqdG3AxGfnbHIYBZRS2vHiUlVFr4
Ee1tHRmccfGwwr09UcKtehVvV6H26vyXmb264j6K8D/npyRamSfRsyk28a9nT+SH
tUZtWWU=
-----END CERTIFICATE-----
