Certificate:
    Data:
        Version: 3 (0x2)
        Serial Number: 16008084551790150878 (0xde282415dbdec4de)
    Signature Algorithm: sha256WithRSAEncryption
        Issuer: C=xx, ST=x, O=x, OU=x, CN=x
        Validity
            Not Before: May  3 09:15:28 2018 GMT
            Not After : May  3 09:15:28 2019 GMT
        Subject: C=CH, ST=VD, L=Lausanne, O=EPFL, OU=LCA1, CN=iccluster093.iccluster.epfl.ch
        Subject Public Key Info:
            Public Key Algorithm: rsaEncryption
                Public-Key: (2048 bit)
                Modulus:
                    00:9a:25:a3:03:9c:b0:0d:37:15:5e:db:f3:cd:6d:
                    81:e6:07:b5:06:aa:b7:4b:03:44:82:e1:2d:ed:b7:
                    bb:59:27:2c:00:2d:b2:31:b6:16:00:20:49:a4:c6:
                    db:84:ba:60:33:75:cf:0b:b9:32:01:10:7e:c5:e1:
                    d1:ff:88:08:7b:3f:80:03:bd:a8:59:5e:4d:80:bf:
                    0c:ee:f7:34:c3:79:47:76:9f:fb:51:3c:a6:7d:74:
                    8e:71:fe:cb:db:ba:d7:aa:64:b6:39:02:e0:2b:16:
                    56:e5:6a:e7:7d:e0:b0:56:ad:6f:de:e4:65:72:3b:
                    87:fb:85:58:90:e8:e2:e1:39:7e:64:19:08:d6:81:
                    bc:d4:c5:15:26:20:8f:18:fd:c2:64:66:c6:7a:36:
                    ff:55:c8:60:76:fa:2c:17:d6:fe:de:9a:2a:ca:8f:
                    ce:d5:f4:ff:26:27:6a:26:15:f7:78:c8:8d:0c:54:
                    30:87:da:7d:88:32:19:25:08:33:c2:55:3b:21:dd:
                    e6:1c:96:a6:21:1e:9b:e0:54:8d:e8:c5:a9:0e:0d:
                    78:ee:c8:09:92:7e:1c:a0:9e:ac:a9:7c:f3:91:f4:
                    58:0f:83:f4:ba:ab:e9:94:af:1b:32:fe:66:b3:7b:
                    ca:1d:a5:c0:6b:96:aa:87:f8:7e:75:74:55:9e:84:
                    29:4b
                Exponent: 65537 (0x10001)
        X509v3 extensions:
            X509v3 Basic Constraints: 
                CA:FALSE
            X509v3 Subject Alternative Name: 
                IP Address:10.90.40.19, DNS:iccluster093.iccluster.epfl.ch
            X509v3 Subject Key Identifier: 
                7C:23:70:10:27:5C:24:B8:FC:D4:89:71:87:44:8B:48:ED:9E:05:91
    Signature Algorithm: sha256WithRSAEncryption
         aa:53:bc:c2:26:16:23:1c:61:da:e0:d0:bd:96:19:74:79:15:
         f9:c5:55:19:d8:8b:e3:7b:f4:fe:fc:a2:fa:fd:ac:45:ad:0a:
         a7:ea:b1:ff:79:d9:55:66:16:cb:3a:37:5e:90:f8:7b:50:53:
         d1:9b:29:59:0d:4a:23:7b:a9:90:1c:f9:66:fc:38:65:af:02:
         ce:f8:d2:40:0e:ff:d1:3b:22:bb:75:5a:0b:2d:e6:e5:0b:a4:
         74:44:77:22:d4:67:97:a7:8c:a3:1d:b6:57:b4:10:fa:21:01:
         a2:32:1e:1a:ac:42:54:ad:5b:08:dc:dc:5c:ed:08:b8:c0:51:
         81:4b:f0:58:51:a0:8f:23:67:12:88:da:c5:e5:fb:e9:56:df:
         64:c7:fb:9a:f7:63:21:34:7e:c3:8b:24:85:a5:f7:64:ab:01:
         b4:b2:bf:3f:76:72:6a:1a:94:c5:e5:39:37:39:79:94:ee:d9:
         e2:16:22:a7:11:b7:dd:eb:97:39:cf:27:93:28:4c:18:ae:58:
         d0:ad:04:72:bf:35:3c:cf:22:96:19:44:10:47:6c:ac:e5:4a:
         7c:76:1c:26:a0:5d:49:bc:0f:61:b6:44:21:38:95:f9:a8:84:
         4f:a0:c1:a9:a2:29:16:91:2e:e8:a5:e9:21:cd:8a:2e:50:0a:
         ba:2f:3a:cc
-----BEGIN CERTIFICATE-----
MIIDkTCCAnmgAwIBAgIJAN4oJBXb3sTeMA0GCSqGSIb3DQEBCwUAMD0xCzAJBgNV
BAYTAnh4MQowCAYDVQQIDAF4MQowCAYDVQQKDAF4MQowCAYDVQQLDAF4MQowCAYD
VQQDDAF4MB4XDTE4MDUwMzA5MTUyOFoXDTE5MDUwMzA5MTUyOFowdDELMAkGA1UE
BhMCQ0gxCzAJBgNVBAgTAlZEMREwDwYDVQQHEwhMYXVzYW5uZTENMAsGA1UEChME
RVBGTDENMAsGA1UECxMETENBMTEnMCUGA1UEAxMeaWNjbHVzdGVyMDkzLmljY2x1
c3Rlci5lcGZsLmNoMIIBIjANBgkqhkiG9w0BAQEFAAOCAQ8AMIIBCgKCAQEAmiWj
A5ywDTcVXtvzzW2B5ge1Bqq3SwNEguEt7be7WScsAC2yMbYWACBJpMbbhLpgM3XP
C7kyARB+xeHR/4gIez+AA72oWV5NgL8M7vc0w3lHdp/7UTymfXSOcf7L27rXqmS2
OQLgKxZW5WrnfeCwVq1v3uRlcjuH+4VYkOji4Tl+ZBkI1oG81MUVJiCPGP3CZGbG
ejb/VchgdvosF9b+3poqyo/O1fT/JidqJhX3eMiNDFQwh9p9iDIZJQgzwlU7Id3m
HJamIR6b4FSN6MWpDg147sgJkn4coJ6sqXzzkfRYD4P0uqvplK8bMv5ms3vKHaXA
a5aqh/h+dXRVnoQpSwIDAQABo10wWzAJBgNVHRMEAjAAMC8GA1UdEQQoMCaHBApa
KBOCHmljY2x1c3RlcjA5My5pY2NsdXN0ZXIuZXBmbC5jaDAdBgNVHQ4EFgQUfCNw
ECdcJLj81Ilxh0SLSO2eBZEwDQYJKoZIhvcNAQELBQADggEBAKpTvMImFiMcYdrg
0L2WGXR5FfnFVRnYi+N79P78ovr9rEWtCqfqsf952VVmFss6N16Q+HtQU9GbKVkN
SiN7qZAc+Wb8OGWvAs740kAO/9E7Irt1Wgst5uULpHREdyLUZ5enjKMdtle0EPoh
AaIyHhqsQlStWwjc3FztCLjAUYFL8FhRoI8jZxKI2sXl++lW32TH+5r3YyE0fsOL
JIWl92SrAbSyvz92cmoalMXlOTc5eZTu2eIWIqcRt93rlznPJ5MoTBiuWNCtBHK/
NTzPIpYZRBBHbKzlSnx2HCagXUm8D2G2RCE4lfmohE+gwamiKRaRLuil6SHNii5Q
CrovOsw=
-----END CERTIFICATE-----
