Certificate:
    Data:
        Version: 3 (0x2)
        Serial Number: 16825504056027015273 (0xe98032cb2a626869)
    Signature Algorithm: sha256WithRSAEncryption
        Issuer: C=CH, ST=Vaud, O=EPFL, OU=MedCo, CN=Node 2
        Validity
            Not Before: Apr 10 10:32:25 2018 GMT
            Not After : Apr  9 10:32:25 2021 GMT
        Subject: C=CH, ST=Vaud, O=EPFL, OU=MedCo, CN=Node 2
        Subject Public Key Info:
            Public Key Algorithm: rsaEncryption
                Public-Key: (2048 bit)
                Modulus:
                    00:d5:20:7f:e0:32:81:09:0c:5e:0e:17:1a:92:76:
                    f5:53:02:10:af:15:35:29:29:b7:2a:7c:3c:89:38:
                    99:2e:3f:90:a7:0a:ae:cc:74:64:aa:c7:07:fb:cb:
                    8f:78:4b:3b:d4:da:d0:43:b1:7c:00:1c:14:2d:5e:
                    53:dc:02:69:eb:aa:42:a1:a9:32:c6:28:26:47:6e:
                    9b:0f:97:89:be:53:bb:96:3b:5b:94:ef:6f:f8:5b:
                    fe:25:44:4d:f3:30:eb:96:64:bc:11:4f:ef:b4:88:
                    68:64:23:0d:86:ed:63:85:2b:ff:8d:e1:8a:f4:7a:
                    57:6e:a4:b6:cc:26:c0:0e:9e:90:b6:32:ad:cf:7a:
                    7e:7d:74:2d:b1:50:d9:b3:b9:bb:c5:01:13:59:c7:
                    14:ac:4f:28:e0:35:a1:af:66:57:00:a6:51:33:20:
                    a7:82:ed:36:dc:13:9e:35:f3:97:81:d4:5f:80:f6:
                    b6:e4:c7:4f:81:15:f9:b2:63:f6:19:ff:88:7d:2c:
                    44:1f:9f:3a:e0:04:9d:96:58:67:93:c2:0d:00:dd:
                    b0:34:40:5d:7d:c7:5b:ce:c5:5a:16:91:e9:d2:74:
                    25:b8:15:05:5a:cd:8f:ed:02:a9:92:f3:e2:1c:b4:
                    06:15:b1:40:c7:09:a0:64:47:8a:fd:92:e4:97:55:
                    d1:59
                Exponent: 65537 (0x10001)
        X509v3 extensions:
            X509v3 Subject Key Identifier: 
                A2:F4:C7:C0:B4:19:3D:DF:C7:DE:54:90:C3:4D:11:A7:EA:37:00:5C
            X509v3 Authority Key Identifier: 
                keyid:A2:F4:C7:C0:B4:19:3D:DF:C7:DE:54:90:C3:4D:11:A7:EA:37:00:5C

            X509v3 Basic Constraints: 
                CA:TRUE
    Signature Algorithm: sha256WithRSAEncryption
         b3:d5:89:de:8d:fa:2e:6a:7e:ac:80:eb:23:a9:08:4d:22:ce:
         f9:f5:2d:46:1b:02:a9:35:91:c6:69:57:3c:58:52:d6:de:ef:
         25:90:68:93:60:33:99:f8:3b:86:8b:a7:86:fb:a0:75:f4:77:
         fa:15:2f:97:67:47:f0:e4:3c:80:e3:f1:31:48:3d:4d:f9:1f:
         2d:7d:c8:d3:4d:bb:ec:6b:9f:a6:5e:82:41:9a:c4:ca:f0:3e:
         3a:9a:a8:39:4d:f4:1c:d9:6d:cf:b6:f3:d7:a3:3b:38:44:bd:
         96:21:b0:d0:12:b0:a2:32:e5:31:a7:ce:41:2a:75:6d:a4:aa:
         c0:f2:4a:85:a0:0a:fe:52:c2:74:f4:b9:ed:86:3b:96:48:60:
         67:07:61:7f:7f:b8:81:47:59:5f:01:76:cd:6c:3e:06:a1:f1:
         50:5f:b1:62:ef:39:2a:97:be:d4:dc:48:9f:0d:62:a4:c1:f9:
         b5:86:20:6f:3e:df:7c:32:66:c7:71:15:af:d0:9d:b4:3d:3f:
         c0:4b:08:31:be:6b:8f:2c:0f:14:59:df:ea:e3:ae:48:d4:6b:
         16:be:a9:ad:6f:b7:c3:58:56:20:6f:cd:c0:76:5a:4b:e3:59:
         c5:f3:83:00:73:16:b3:01:1c:a0:02:5e:fd:e0:bd:15:a8:14:
         a1:53:32:32
-----BEGIN CERTIFICATE-----
MIIDazCCAlOgAwIBAgIJAOmAMssqYmhpMA0GCSqGSIb3DQEBCwUAMEwxCzAJBgNV
BAYTAkNIMQ0wCwYDVQQIDARWYXVkMQ0wCwYDVQQKDARFUEZMMQ4wDAYDVQQLDAVN
ZWRDbzEPMA0GA1UEAwwGTm9kZSAyMB4XDTE4MDQxMDEwMzIyNVoXDTIxMDQwOTEw
MzIyNVowTDELMAkGA1UEBhMCQ0gxDTALBgNVBAgMBFZhdWQxDTALBgNVBAoMBEVQ
RkwxDjAMBgNVBAsMBU1lZENvMQ8wDQYDVQQDDAZOb2RlIDIwggEiMA0GCSqGSIb3
DQEBAQUAA4IBDwAwggEKAoIBAQDVIH/gMoEJDF4OFxqSdvVTAhCvFTUpKbcqfDyJ
OJkuP5CnCq7MdGSqxwf7y494SzvU2tBDsXwAHBQtXlPcAmnrqkKhqTLGKCZHbpsP
l4m+U7uWO1uU72/4W/4lRE3zMOuWZLwRT++0iGhkIw2G7WOFK/+N4Yr0eldupLbM
JsAOnpC2Mq3Pen59dC2xUNmzubvFARNZxxSsTyjgNaGvZlcAplEzIKeC7TbcE541
85eB1F+A9rbkx0+BFfmyY/YZ/4h9LEQfnzrgBJ2WWGeTwg0A3bA0QF19x1vOxVoW
kenSdCW4FQVazY/tAqmS8+IctAYVsUDHCaBkR4r9kuSXVdFZAgMBAAGjUDBOMB0G
A1UdDgQWBBSi9MfAtBk938feVJDDTRGn6jcAXDAfBgNVHSMEGDAWgBSi9MfAtBk9
38feVJDDTRGn6jcAXDAMBgNVHRMEBTADAQH/MA0GCSqGSIb3DQEBCwUAA4IBAQCz
1Ynejfouan6sgOsjqQhNIs759S1GGwKpNZHGaVc8WFLW3u8lkGiTYDOZ+DuGi6eG
+6B19Hf6FS+XZ0fw5DyA4/ExSD1N+R8tfcjTTbvsa5+mXoJBmsTK8D46mqg5TfQc
2W3PtvPXozs4RL2WIbDQErCiMuUxp85BKnVtpKrA8kqFoAr+UsJ09LnthjuWSGBn
B2F/f7iBR1lfAXbNbD4GofFQX7Fi7zkql77U3EifDWKkwfm1hiBvPt98MmbHcRWv
0J20PT/ASwgxvmuPLA8UWd/q465I1GsWvqmtb7fDWFYgb83AdlpL41nF84MAcxaz
ARygAl794L0VqBShUzIy
-----END CERTIFICATE-----
