Certificate:
    Data:
        Version: 3 (0x2)
        Serial Number: 17975455193452521122 (0xf975a542a9b026a2)
    Signature Algorithm: sha256WithRSAEncryption
        Issuer: C=xx, ST=x, O=x, OU=x, CN=x/emailAddress=x
        Validity
            Not Before: Apr 28 12:12:39 2018 GMT
            Not After : Apr 28 12:12:39 2019 GMT
        Subject: C=CH, ST=VD, L=Lausanne, O=EPFL, OU=LCA1, CN=iccluster097.iccluster.epfl.ch
        Subject Public Key Info:
            Public Key Algorithm: rsaEncryption
                Public-Key: (2048 bit)
                Modulus:
                    00:a4:ad:ec:40:1b:f2:ec:91:0d:be:d9:a3:7b:15:
                    b0:b8:ca:a4:a1:c9:78:74:2c:43:5a:98:66:e3:55:
                    55:c4:0c:9f:ee:1e:39:d5:c2:3f:77:c3:59:2e:59:
                    b6:fd:2a:63:26:60:44:b2:b6:b8:2d:e3:24:8d:93:
                    08:22:08:91:b5:d5:da:7f:61:a5:ec:40:5e:14:c5:
                    8e:d0:04:bd:a8:53:9d:66:38:e4:0f:02:e9:b0:2a:
                    ed:18:2d:52:a4:97:56:bd:e8:41:4f:19:8d:3c:ab:
                    8c:9e:2b:c8:12:11:bb:71:6c:2c:94:91:18:c6:07:
                    bf:c1:10:14:21:75:71:d4:20:9a:e0:7d:61:7b:5a:
                    92:e7:a0:cb:a8:03:1a:77:83:30:89:60:f2:ce:07:
                    73:5d:a4:ee:96:52:bf:69:02:e3:e8:eb:e7:01:8a:
                    74:b5:5e:38:43:8f:39:ad:ca:e6:9b:a9:8b:91:85:
                    03:7c:68:97:7e:b7:13:ac:65:8e:b2:4c:09:81:24:
                    bd:a2:5a:d1:cf:b6:cb:21:bd:4b:50:bc:89:db:6d:
                    be:bf:26:d5:d3:b8:ca:0c:23:e7:63:61:07:f3:2c:
                    73:a7:f2:ec:14:1f:c6:4d:7e:29:7b:b4:6a:b6:98:
                    56:05:d4:23:f5:18:ba:54:b0:e5:4c:80:93:90:d0:
                    ff:29
                Exponent: 65537 (0x10001)
        X509v3 extensions:
            X509v3 Basic Constraints: 
                CA:FALSE
            X509v3 Subject Alternative Name: 
                IP Address:10.90.40.23, DNS:iccluster097.iccluster.epfl.ch
            X509v3 Subject Key Identifier: 
                3B:D3:41:10:06:B3:13:40:2F:19:91:95:03:66:3A:B5:4D:80:3F:4E
    Signature Algorithm: sha256WithRSAEncryption
         5f:1f:18:c8:f4:09:fd:ac:19:88:eb:f0:0b:32:d1:f1:cf:c9:
         0f:12:06:2c:31:b9:4f:05:86:ad:5a:42:68:b4:d8:8d:bf:02:
         c9:67:f0:59:a2:df:f8:e0:82:74:25:2a:fc:35:b8:4b:21:77:
         f8:14:11:4b:ee:05:00:77:6d:2f:8e:a4:bd:d7:f3:f7:5f:89:
         4b:37:dc:0e:9b:c9:78:71:d4:27:fc:a8:f3:72:a2:1b:88:ed:
         90:cf:c1:30:f7:08:0a:4f:3c:aa:b3:d0:00:21:c0:0f:6d:98:
         cd:4a:18:01:f6:d9:4a:62:bf:d6:d0:fb:88:92:6a:08:eb:38:
         77:51:bd:1c:63:db:4b:ac:36:b4:3f:0d:72:2e:72:d0:8e:08:
         90:73:22:23:11:2b:15:00:5e:1f:f4:81:de:d6:61:e1:9a:29:
         54:ca:2b:26:e1:6c:16:19:6a:18:44:42:5f:77:19:7f:c9:ce:
         5a:1a:9d:64:da:82:c9:fd:6d:bc:44:6e:40:8e:e0:4c:a0:7f:
         32:f4:8f:e9:17:2a:0e:59:5e:ee:81:82:fa:05:40:7d:d2:54:
         13:d5:0a:c3:b4:3e:01:b7:0d:16:57:8b:3a:c9:bb:5d:2d:1b:
         51:95:83:b4:aa:fa:b4:12:07:9f:47:56:10:e2:3e:d9:82:2c:
         d2:49:30:16
-----BEGIN CERTIFICATE-----
MIIDozCCAougAwIBAgIJAPl1pUKpsCaiMA0GCSqGSIb3DQEBCwUAME8xCzAJBgNV
BAYTAnh4MQowCAYDVQQIDAF4MQowCAYDVQQKDAF4MQowCAYDVQQLDAF4MQowCAYD
VQQDDAF4MRAwDgYJKoZIhvcNAQkBFgF4MB4XDTE4MDQyODEyMTIzOVoXDTE5MDQy
ODEyMTIzOVowdDELMAkGA1UEBhMCQ0gxCzAJBgNVBAgTAlZEMREwDwYDVQQHEwhM
YXVzYW5uZTENMAsGA1UEChMERVBGTDENMAsGA1UECxMETENBMTEnMCUGA1UEAxMe
aWNjbHVzdGVyMDk3LmljY2x1c3Rlci5lcGZsLmNoMIIBIjANBgkqhkiG9w0BAQEF
AAOCAQ8AMIIBCgKCAQEApK3sQBvy7JENvtmjexWwuMqkocl4dCxDWphm41VVxAyf
7h451cI/d8NZLlm2/SpjJmBEsra4LeMkjZMIIgiRtdXaf2Gl7EBeFMWO0AS9qFOd
ZjjkDwLpsCrtGC1SpJdWvehBTxmNPKuMnivIEhG7cWwslJEYxge/wRAUIXVx1CCa
4H1he1qS56DLqAMad4MwiWDyzgdzXaTullK/aQLj6OvnAYp0tV44Q485rcrmm6mL
kYUDfGiXfrcTrGWOskwJgSS9olrRz7bLIb1LULyJ222+vybV07jKDCPnY2EH8yxz
p/LsFB/GTX4pe7RqtphWBdQj9Ri6VLDlTICTkND/KQIDAQABo10wWzAJBgNVHRME
AjAAMC8GA1UdEQQoMCaHBApaKBeCHmljY2x1c3RlcjA5Ny5pY2NsdXN0ZXIuZXBm
bC5jaDAdBgNVHQ4EFgQUO9NBEAazE0AvGZGVA2Y6tU2AP04wDQYJKoZIhvcNAQEL
BQADggEBAF8fGMj0Cf2sGYjr8Asy0fHPyQ8SBiwxuU8Fhq1aQmi02I2/Asln8Fmi
3/jggnQlKvw1uEshd/gUEUvuBQB3bS+OpL3X8/dfiUs33A6byXhx1Cf8qPNyohuI
7ZDPwTD3CApPPKqz0AAhwA9tmM1KGAH22Upiv9bQ+4iSagjrOHdRvRxj20usNrQ/
DXIuctCOCJBzIiMRKxUAXh/0gd7WYeGaKVTKKybhbBYZahhEQl93GX/JzloanWTa
gsn9bbxEbkCO4EygfzL0j+kXKg5ZXu6BgvoFQH3SVBPVCsO0PgG3DRZXizrJu10t
G1GVg7Sq+rQSB59HVhDiPtmCLNJJMBY=
-----END CERTIFICATE-----
