Certificate:
    Data:
        Version: 3 (0x2)
        Serial Number: 17975455193452521121 (0xf975a542a9b026a1)
    Signature Algorithm: sha256WithRSAEncryption
        Issuer: C=xx, ST=x, O=x, OU=x, CN=x/emailAddress=x
        Validity
            Not Before: Apr 28 12:12:30 2018 GMT
            Not After : Apr 28 12:12:30 2019 GMT
        Subject: C=CH, ST=VD, L=Lausanne, O=EPFL, OU=LCA1, CN=iccluster096.iccluster.epfl.ch
        Subject Public Key Info:
            Public Key Algorithm: rsaEncryption
                Public-Key: (2048 bit)
                Modulus:
                    00:a3:85:20:ed:fa:a8:11:a0:01:5c:62:e6:ff:98:
                    1f:e4:97:32:bd:f8:3b:69:cf:ea:2b:72:f8:df:2a:
                    0f:21:80:26:1a:8d:9f:e4:df:71:f0:c2:6d:86:09:
                    e9:1a:73:e9:b3:bc:80:99:32:8d:74:ba:c4:b0:0b:
                    c5:7c:9c:a3:44:d8:2a:6c:60:2a:b2:74:82:c9:cd:
                    88:65:73:54:fd:14:e9:1e:63:7d:d2:32:1d:df:76:
                    80:15:ec:04:04:d4:97:e1:6c:4e:27:10:a6:5d:c6:
                    ce:f0:c5:da:4e:3b:a4:9e:fa:bc:5d:22:20:5f:df:
                    57:e8:87:58:a2:1e:9f:6f:86:a2:08:40:c7:10:d2:
                    91:4e:16:14:3e:67:0f:ad:b1:14:67:06:d9:e4:07:
                    b5:ca:5b:a5:a9:d0:8f:35:56:96:6e:e9:f4:f5:a2:
                    d5:f8:2b:e5:5f:de:e5:f0:71:81:1b:88:aa:5f:49:
                    93:43:04:8d:b2:5c:21:1e:bc:28:d9:a2:35:d2:d4:
                    cf:4a:89:6c:3c:a3:6b:5c:9b:ca:f9:af:d8:38:2b:
                    2d:64:67:6b:06:88:72:f1:9e:0e:43:29:54:ca:59:
                    01:ec:15:5e:5f:01:4f:92:48:5a:79:27:d4:73:f1:
                    ab:1c:de:91:3a:3a:a5:97:c6:88:2a:3d:64:0d:0c:
                    11:b5
                Exponent: 65537 (0x10001)
        X509v3 extensions:
            X509v3 Basic Constraints: 
                CA:FALSE
            X509v3 Subject Alternative Name: 
                IP Address:10.90.40.22, DNS:iccluster096.iccluster.epfl.ch
            X509v3 Subject Key Identifier: 
                4D:A5:52:0F:2D:63:54:B1:18:C1:0D:A1:15:CE:BB:FB:70:91:FF:CC
    Signature Algorithm: sha256WithRSAEncryption
         30:03:43:a2:a4:87:a9:2c:ee:5d:58:03:2d:4d:a1:e8:e0:9e:
         2f:ab:a8:71:d7:7d:03:f2:db:3d:29:b0:46:1a:ee:78:02:15:
         eb:e9:ea:68:c2:83:78:f5:15:37:15:a3:6d:11:3e:d5:79:3d:
         44:7e:6e:1c:f0:4e:00:e9:30:4c:d0:3b:f8:f4:21:b4:27:a5:
         7b:17:6c:5a:1c:c4:71:0e:92:ba:65:ca:1d:6a:96:ac:bf:ee:
         9f:3a:72:99:23:7f:17:21:d8:8b:ca:0c:0d:1e:1a:ea:26:6a:
         64:a0:36:c8:f8:4f:b5:2e:6a:c9:24:47:45:60:e8:30:87:06:
         72:fd:2e:25:f4:00:7a:d4:69:53:17:c4:04:b2:8c:6d:4a:85:
         d1:a1:fa:61:09:4b:e9:af:44:21:f9:9b:4e:6a:f1:c6:53:b8:
         18:3d:a7:1b:e9:65:ee:5c:91:c2:cf:19:72:55:a1:e8:d8:c6:
         49:83:2e:b9:ba:c7:35:00:85:e7:34:e5:9f:bb:e6:f8:c4:cc:
         7a:91:d5:7c:e2:a2:d1:55:21:58:ba:70:98:a9:b0:74:1c:b2:
         71:8d:ca:1b:d2:83:11:fe:1e:5b:57:df:47:ed:31:09:ef:26:
         23:a1:50:ac:71:bb:dd:dc:84:68:83:9e:30:4c:51:64:37:74:
         22:f9:67:be
-----BEGIN CERTIFICATE-----
MIIDozCCAougAwIBAgIJAPl1pUKpsCahMA0GCSqGSIb3DQEBCwUAME8xCzAJBgNV
BAYTAnh4MQowCAYDVQQIDAF4MQowCAYDVQQKDAF4MQowCAYDVQQLDAF4MQowCAYD
VQQDDAF4MRAwDgYJKoZIhvcNAQkBFgF4MB4XDTE4MDQyODEyMTIzMFoXDTE5MDQy
ODEyMTIzMFowdDELMAkGA1UEBhMCQ0gxCzAJBgNVBAgTAlZEMREwDwYDVQQHEwhM
YXVzYW5uZTENMAsGA1UEChMERVBGTDENMAsGA1UECxMETENBMTEnMCUGA1UEAxMe
aWNjbHVzdGVyMDk2LmljY2x1c3Rlci5lcGZsLmNoMIIBIjANBgkqhkiG9w0BAQEF
AAOCAQ8AMIIBCgKCAQEAo4Ug7fqoEaABXGLm/5gf5Jcyvfg7ac/qK3L43yoPIYAm
Go2f5N9x8MJthgnpGnPps7yAmTKNdLrEsAvFfJyjRNgqbGAqsnSCyc2IZXNU/RTp
HmN90jId33aAFewEBNSX4WxOJxCmXcbO8MXaTjuknvq8XSIgX99X6IdYoh6fb4ai
CEDHENKRThYUPmcPrbEUZwbZ5Ae1ylulqdCPNVaWbun09aLV+CvlX97l8HGBG4iq
X0mTQwSNslwhHrwo2aI10tTPSolsPKNrXJvK+a/YOCstZGdrBohy8Z4OQylUylkB
7BVeXwFPkkhaeSfUc/GrHN6ROjqll8aIKj1kDQwRtQIDAQABo10wWzAJBgNVHRME
AjAAMC8GA1UdEQQoMCaHBApaKBaCHmljY2x1c3RlcjA5Ni5pY2NsdXN0ZXIuZXBm
bC5jaDAdBgNVHQ4EFgQUTaVSDy1jVLEYwQ2hFc67+3CR/8wwDQYJKoZIhvcNAQEL
BQADggEBADADQ6Kkh6ks7l1YAy1Noejgni+rqHHXfQPy2z0psEYa7ngCFevp6mjC
g3j1FTcVo20RPtV5PUR+bhzwTgDpMEzQO/j0IbQnpXsXbFocxHEOkrplyh1qlqy/
7p86cpkjfxch2IvKDA0eGuomamSgNsj4T7UuaskkR0Vg6DCHBnL9LiX0AHrUaVMX
xASyjG1KhdGh+mEJS+mvRCH5m05q8cZTuBg9pxvpZe5ckcLPGXJVoejYxkmDLrm6
xzUAhec05Z+75vjEzHqR1XziotFVIVi6cJipsHQcsnGNyhvSgxH+HltX30ftMQnv
JiOhUKxxu93chGiDnjBMUWQ3dCL5Z74=
-----END CERTIFICATE-----
