Certificate:
    Data:
        Version: 3 (0x2)
        Serial Number: 17975455193452521123 (0xf975a542a9b026a3)
    Signature Algorithm: sha256WithRSAEncryption
        Issuer: C=xx, ST=x, O=x, OU=x, CN=x/emailAddress=x
        Validity
            Not Before: Apr 28 12:12:47 2018 GMT
            Not After : Apr 28 12:12:47 2019 GMT
        Subject: C=CH, ST=VD, L=Lausanne, O=EPFL, OU=LCA1, CN=iccluster098.iccluster.epfl.ch
        Subject Public Key Info:
            Public Key Algorithm: rsaEncryption
                Public-Key: (2048 bit)
                Modulus:
                    00:c2:74:ff:2d:36:d8:27:12:ea:d1:7f:cc:9d:82:
                    64:61:64:44:ce:10:08:55:76:e2:c8:e5:a8:a2:2f:
                    f8:e1:a8:02:42:68:16:91:18:5b:a6:3e:66:f1:a6:
                    57:24:03:c7:8a:f5:cb:f3:ac:bf:2d:f0:d4:2c:27:
                    55:e6:02:87:8a:2f:e4:16:d6:3d:e5:86:f7:64:3b:
                    df:63:a1:12:c9:0a:d6:b5:8f:f8:cc:23:03:17:08:
                    bb:64:7e:f7:63:1e:ff:ed:ff:89:ed:4c:61:c5:0f:
                    14:16:80:34:0e:9b:b5:bf:f1:ac:74:32:c4:87:e6:
                    21:7e:83:52:38:dd:3f:12:e7:77:b4:cf:1a:aa:61:
                    5f:4b:13:9a:c3:ae:63:14:c2:86:c6:bf:84:dd:35:
                    11:f3:d0:89:77:1c:ed:e5:fc:18:44:89:f5:ee:56:
                    4a:d1:09:92:68:3e:b7:7d:d3:4b:ad:0f:99:41:5c:
                    92:df:a2:6a:e8:ba:81:8b:c0:b0:a2:4a:ea:e7:64:
                    76:78:15:e0:52:8e:35:9f:61:14:02:56:cc:95:1d:
                    83:6b:f8:c7:3b:d4:e1:e2:e6:ff:49:9d:f0:4e:3e:
                    36:91:9b:d0:48:41:9b:ea:e7:76:d7:0b:4b:34:2d:
                    e7:c5:f0:41:fd:1d:0a:fb:f1:ff:b9:4b:b9:d5:6a:
                    17:e1
                Exponent: 65537 (0x10001)
        X509v3 extensions:
            X509v3 Basic Constraints: 
                CA:FALSE
            X509v3 Subject Alternative Name: 
                IP Address:10.90.40.24, DNS:iccluster098.iccluster.epfl.ch
            X509v3 Subject Key Identifier: 
                63:A2:A4:25:59:F8:76:77:B4:4C:F0:C6:91:BC:C9:C5:7F:60:BE:6C
    Signature Algorithm: sha256WithRSAEncryption
         58:81:18:d2:69:43:ed:19:16:69:ec:c7:64:64:a0:d6:cb:9c:
         d2:2d:25:26:cc:a0:f6:92:a4:97:6b:48:13:5f:e1:d2:32:ec:
         9e:ee:33:80:d1:29:87:6d:d5:55:43:fe:6c:bc:5c:75:e8:62:
         99:ab:df:1e:f7:47:68:b3:09:87:04:11:a2:61:fe:bf:42:13:
         7d:42:a3:46:a3:0d:00:ce:a4:77:74:15:88:d8:d9:e2:12:a5:
         c8:3b:f6:bd:66:43:7b:31:bd:aa:8f:f8:1b:59:c5:de:82:2f:
         71:74:a6:55:05:ea:e0:54:63:f8:9a:bd:87:95:52:07:b4:0b:
         9e:26:e4:1b:a0:67:46:c2:40:a6:15:b6:fc:7e:d2:ea:83:42:
         32:a2:70:e7:4b:a1:d2:e1:02:72:44:ff:45:9e:54:1d:a4:aa:
         5e:83:09:34:bf:d0:59:b7:12:0d:c2:f5:72:eb:95:96:00:d6:
         df:08:a1:84:ec:f7:ba:b3:91:dc:9b:4c:42:f1:f9:90:fa:0f:
         1d:ba:b9:11:25:08:36:cc:4d:d5:57:4d:0b:e1:06:2e:cc:4c:
         00:d0:1a:3a:8b:83:0b:88:57:49:50:fa:06:e3:a5:97:ee:23:
         17:53:7b:53:cf:60:b0:c1:0a:48:b0:67:1a:44:fd:9e:fa:29:
         aa:01:2f:5e
-----BEGIN CERTIFICATE-----
MIIDozCCAougAwIBAgIJAPl1pUKpsCajMA0GCSqGSIb3DQEBCwUAME8xCzAJBgNV
BAYTAnh4MQowCAYDVQQIDAF4MQowCAYDVQQKDAF4MQowCAYDVQQLDAF4MQowCAYD
VQQDDAF4MRAwDgYJKoZIhvcNAQkBFgF4MB4XDTE4MDQyODEyMTI0N1oXDTE5MDQy
ODEyMTI0N1owdDELMAkGA1UEBhMCQ0gxCzAJBgNVBAgTAlZEMREwDwYDVQQHEwhM
YXVzYW5uZTENMAsGA1UEChMERVBGTDENMAsGA1UECxMETENBMTEnMCUGA1UEAxMe
aWNjbHVzdGVyMDk4LmljY2x1c3Rlci5lcGZsLmNoMIIBIjANBgkqhkiG9w0BAQEF
AAOCAQ8AMIIBCgKCAQEAwnT/LTbYJxLq0X/MnYJkYWREzhAIVXbiyOWooi/44agC
QmgWkRhbpj5m8aZXJAPHivXL86y/LfDULCdV5gKHii/kFtY95Yb3ZDvfY6ESyQrW
tY/4zCMDFwi7ZH73Yx7/7f+J7UxhxQ8UFoA0Dpu1v/GsdDLEh+YhfoNSON0/Eud3
tM8aqmFfSxOaw65jFMKGxr+E3TUR89CJdxzt5fwYRIn17lZK0QmSaD63fdNLrQ+Z
QVyS36Jq6LqBi8Cwokrq52R2eBXgUo41n2EUAlbMlR2Da/jHO9Th4ub/SZ3wTj42
kZvQSEGb6ud21wtLNC3nxfBB/R0K+/H/uUu51WoX4QIDAQABo10wWzAJBgNVHRME
AjAAMC8GA1UdEQQoMCaHBApaKBiCHmljY2x1c3RlcjA5OC5pY2NsdXN0ZXIuZXBm
bC5jaDAdBgNVHQ4EFgQUY6KkJVn4dne0TPDGkbzJxX9gvmwwDQYJKoZIhvcNAQEL
BQADggEBAFiBGNJpQ+0ZFmnsx2RkoNbLnNItJSbMoPaSpJdrSBNf4dIy7J7uM4DR
KYdt1VVD/my8XHXoYpmr3x73R2izCYcEEaJh/r9CE31Co0ajDQDOpHd0FYjY2eIS
pcg79r1mQ3sxvaqP+BtZxd6CL3F0plUF6uBUY/iavYeVUge0C54m5BugZ0bCQKYV
tvx+0uqDQjKicOdLodLhAnJE/0WeVB2kql6DCTS/0Fm3Eg3C9XLrlZYA1t8IoYTs
97qzkdybTELx+ZD6Dx26uRElCDbMTdVXTQvhBi7MTADQGjqLgwuIV0lQ+gbjpZfu
IxdTe1PPYLDBCkiwZxpE/Z76KaoBL14=
-----END CERTIFICATE-----
