Certificate:
    Data:
        Version: 3 (0x2)
        Serial Number: 17975455193452521120 (0xf975a542a9b026a0)
    Signature Algorithm: sha256WithRSAEncryption
        Issuer: C=xx, ST=x, O=x, OU=x, CN=x/emailAddress=x
        Validity
            Not Before: Apr 28 12:12:25 2018 GMT
            Not After : Apr 27 12:12:25 2021 GMT
        Subject: C=xx, ST=x, O=x, OU=x, CN=x/emailAddress=x
        Subject Public Key Info:
            Public Key Algorithm: rsaEncryption
                Public-Key: (2048 bit)
                Modulus:
                    00:b6:7a:bd:c8:09:16:88:dd:1e:a5:3f:3b:d5:bb:
                    ec:9f:a3:3b:c5:41:d2:04:e8:17:be:ab:f5:f7:77:
                    15:9d:2b:51:58:c3:7b:d7:47:fe:2b:8b:6e:78:22:
                    9d:68:9f:fd:f3:ec:4c:65:c7:e1:b5:9b:b7:ba:ba:
                    30:a5:6a:ed:e0:c3:c3:07:ff:5d:74:4c:25:2a:14:
                    99:55:98:5e:0c:a1:d1:be:74:e2:56:aa:c3:3d:f2:
                    05:02:49:e2:0a:da:1e:33:1b:d3:9c:66:61:46:db:
                    64:14:60:cc:45:aa:e5:4f:93:93:4c:f1:60:f3:07:
                    db:7c:5c:49:9e:eb:f0:89:30:1d:1b:bc:10:f5:7b:
                    c8:58:1d:21:da:3a:2e:1b:4f:98:d5:0a:d3:3e:99:
                    99:fa:92:7f:2c:08:c9:ab:2c:d4:f6:5e:0e:98:4b:
                    6c:cc:54:00:ed:6b:86:a1:51:86:f1:4c:e8:88:dd:
                    2d:9f:da:d6:25:5d:c2:86:ab:8b:cb:37:46:01:55:
                    a8:c3:b5:b3:bb:c4:8a:b2:7e:7c:9a:17:1b:c0:aa:
                    c6:5f:47:9a:2a:67:43:f1:54:3a:3c:98:a7:c9:58:
                    a1:1c:e7:cb:5e:d1:e4:15:29:26:21:d7:36:ff:46:
                    0a:be:f3:e4:83:13:bb:25:b5:97:27:c3:3c:55:62:
                    3e:0d
                Exponent: 65537 (0x10001)
        X509v3 extensions:
            X509v3 Subject Key Identifier: 
                7B:88:4C:27:6D:14:C0:EC:D5:75:31:64:A3:ED:DD:64:22:54:76:CA
            X509v3 Authority Key Identifier: 
                keyid:7B:88:4C:27:6D:14:C0:EC:D5:75:31:64:A3:ED:DD:64:22:54:76:CA

            X509v3 Basic Constraints: 
                CA:TRUE
    Signature Algorithm: sha256WithRSAEncryption
         b1:a9:bd:0c:3a:2e:41:e7:93:b9:49:46:94:1a:33:86:71:4c:
         5e:b3:81:9d:1b:0e:51:c8:97:27:3e:b9:5f:77:33:0e:2b:7b:
         39:81:94:56:67:2e:0b:03:60:03:e7:f7:38:11:34:64:5f:b1:
         56:33:9a:b5:cc:9d:9b:ac:5b:65:73:1e:10:f6:65:81:54:1e:
         1b:4a:7e:26:c2:47:04:f9:08:cb:86:9e:32:c0:ae:b4:d6:06:
         c7:da:57:2d:a2:34:26:d5:83:0d:a5:cc:8f:92:6b:5f:99:6d:
         b9:12:83:1f:58:24:85:7a:d7:a9:2f:4e:a6:f7:b0:f0:e9:7d:
         18:8d:3f:bf:90:58:7a:a7:93:0b:11:ab:d1:3a:b3:f6:c0:a2:
         9c:3a:71:77:a5:24:7d:a3:46:2c:3a:75:54:5c:7b:71:de:2f:
         a3:3a:08:89:17:70:80:2a:a6:9a:e7:f3:12:0e:ca:47:23:1b:
         37:61:47:44:22:e6:33:de:86:a2:d4:83:dd:31:79:b9:c5:09:
         f9:4a:d8:75:77:40:84:cd:23:aa:8a:c6:6c:5b:ab:df:47:12:
         e6:ae:3d:6c:ee:cf:65:de:01:11:9a:04:9c:b7:30:be:69:47:
         4c:15:9f:c9:6f:ce:1e:c8:13:9e:12:a3:2a:f9:ba:30:be:c7:
         90:7e:42:5a
-----BEGIN CERTIFICATE-----
MIIDcTCCAlmgAwIBAgIJAPl1pUKpsCagMA0GCSqGSIb3DQEBCwUAME8xCzAJBgNV
BAYTAnh4MQowCAYDVQQIDAF4MQowCAYDVQQKDAF4MQowCAYDVQQLDAF4MQowCAYD
VQQDDAF4MRAwDgYJKoZIhvcNAQkBFgF4MB4XDTE4MDQyODEyMTIyNVoXDTIxMDQy
NzEyMTIyNVowTzELMAkGA1UEBhMCeHgxCjAIBgNVBAgMAXgxCjAIBgNVBAoMAXgx
CjAIBgNVBAsMAXgxCjAIBgNVBAMMAXgxEDAOBgkqhkiG9w0BCQEWAXgwggEiMA0G
CSqGSIb3DQEBAQUAA4IBDwAwggEKAoIBAQC2er3ICRaI3R6lPzvVu+yfozvFQdIE
6Be+q/X3dxWdK1FYw3vXR/4ri254Ip1on/3z7Exlx+G1m7e6ujClau3gw8MH/110
TCUqFJlVmF4ModG+dOJWqsM98gUCSeIK2h4zG9OcZmFG22QUYMxFquVPk5NM8WDz
B9t8XEme6/CJMB0bvBD1e8hYHSHaOi4bT5jVCtM+mZn6kn8sCMmrLNT2Xg6YS2zM
VADta4ahUYbxTOiI3S2f2tYlXcKGq4vLN0YBVajDtbO7xIqyfnyaFxvAqsZfR5oq
Z0PxVDo8mKfJWKEc58te0eQVKSYh1zb/Rgq+8+SDE7sltZcnwzxVYj4NAgMBAAGj
UDBOMB0GA1UdDgQWBBR7iEwnbRTA7NV1MWSj7d1kIlR2yjAfBgNVHSMEGDAWgBR7
iEwnbRTA7NV1MWSj7d1kIlR2yjAMBgNVHRMEBTADAQH/MA0GCSqGSIb3DQEBCwUA
A4IBAQCxqb0MOi5B55O5SUaUGjOGcUxes4GdGw5RyJcnPrlfdzMOK3s5gZRWZy4L
A2AD5/c4ETRkX7FWM5q1zJ2brFtlcx4Q9mWBVB4bSn4mwkcE+QjLhp4ywK601gbH
2lctojQm1YMNpcyPkmtfmW25EoMfWCSFetepL06m97Dw6X0YjT+/kFh6p5MLEavR
OrP2wKKcOnF3pSR9o0YsOnVUXHtx3i+jOgiJF3CAKqaa5/MSDspHIxs3YUdEIuYz
3oai1IPdMXm5xQn5Sth1d0CEzSOqisZsW6vfRxLmrj1s7s9l3gERmgSctzC+aUdM
FZ/Jb84eyBOeEqMq+bowvseQfkJa
-----END CERTIFICATE-----
